
;CodeVisionAVR C Compiler V3.12 Advanced
;(C) Copyright 1998-2014 Pavel Haiduc, HP InfoTech s.r.l.
;http://www.hpinfotech.com

;Build configuration    : Debug
;Chip type              : ATmega8
;Program type           : Application
;Clock frequency        : 8,000000 MHz
;Memory model           : Small
;Optimize for           : Size
;(s)printf features     : int, width
;(s)scanf features      : int, width
;External RAM size      : 0
;Data Stack size        : 256 byte(s)
;Heap size              : 0 byte(s)
;Promote 'char' to 'int': Yes
;'char' is unsigned     : Yes
;8 bit enums            : Yes
;Global 'const' stored in FLASH: Yes
;Enhanced function parameter passing: Yes
;Enhanced core instructions: On
;Automatic register allocation for global variables: On
;Smart register allocation: On

	#define _MODEL_SMALL_

	#pragma AVRPART ADMIN PART_NAME ATmega8
	#pragma AVRPART MEMORY PROG_FLASH 8192
	#pragma AVRPART MEMORY EEPROM 512
	#pragma AVRPART MEMORY INT_SRAM SIZE 1024
	#pragma AVRPART MEMORY INT_SRAM START_ADDR 0x60

	.LISTMAC
	.EQU UDRE=0x5
	.EQU RXC=0x7
	.EQU USR=0xB
	.EQU UDR=0xC
	.EQU SPSR=0xE
	.EQU SPDR=0xF
	.EQU EERE=0x0
	.EQU EEWE=0x1
	.EQU EEMWE=0x2
	.EQU EECR=0x1C
	.EQU EEDR=0x1D
	.EQU EEARL=0x1E
	.EQU EEARH=0x1F
	.EQU WDTCR=0x21
	.EQU MCUCR=0x35
	.EQU GICR=0x3B
	.EQU SPL=0x3D
	.EQU SPH=0x3E
	.EQU SREG=0x3F

	.DEF R0X0=R0
	.DEF R0X1=R1
	.DEF R0X2=R2
	.DEF R0X3=R3
	.DEF R0X4=R4
	.DEF R0X5=R5
	.DEF R0X6=R6
	.DEF R0X7=R7
	.DEF R0X8=R8
	.DEF R0X9=R9
	.DEF R0XA=R10
	.DEF R0XB=R11
	.DEF R0XC=R12
	.DEF R0XD=R13
	.DEF R0XE=R14
	.DEF R0XF=R15
	.DEF R0X10=R16
	.DEF R0X11=R17
	.DEF R0X12=R18
	.DEF R0X13=R19
	.DEF R0X14=R20
	.DEF R0X15=R21
	.DEF R0X16=R22
	.DEF R0X17=R23
	.DEF R0X18=R24
	.DEF R0X19=R25
	.DEF R0X1A=R26
	.DEF R0X1B=R27
	.DEF R0X1C=R28
	.DEF R0X1D=R29
	.DEF R0X1E=R30
	.DEF R0X1F=R31

	.EQU __SRAM_START=0x0060
	.EQU __SRAM_END=0x045F
	.EQU __DSTACK_SIZE=0x0100
	.EQU __HEAP_SIZE=0x0000
	.EQU __CLEAR_SRAM_SIZE=__SRAM_END-__SRAM_START+1

	.MACRO __CPD1N
	CPI  R30,LOW(@0)
	LDI  R26,HIGH(@0)
	CPC  R31,R26
	LDI  R26,BYTE3(@0)
	CPC  R22,R26
	LDI  R26,BYTE4(@0)
	CPC  R23,R26
	.ENDM

	.MACRO __CPD2N
	CPI  R26,LOW(@0)
	LDI  R30,HIGH(@0)
	CPC  R27,R30
	LDI  R30,BYTE3(@0)
	CPC  R24,R30
	LDI  R30,BYTE4(@0)
	CPC  R25,R30
	.ENDM

	.MACRO __CPWRR
	CP   R@0,R@2
	CPC  R@1,R@3
	.ENDM

	.MACRO __CPWRN
	CPI  R@0,LOW(@2)
	LDI  R30,HIGH(@2)
	CPC  R@1,R30
	.ENDM

	.MACRO __ADDB1MN
	SUBI R30,LOW(-@0-(@1))
	.ENDM

	.MACRO __ADDB2MN
	SUBI R26,LOW(-@0-(@1))
	.ENDM

	.MACRO __ADDW1MN
	SUBI R30,LOW(-@0-(@1))
	SBCI R31,HIGH(-@0-(@1))
	.ENDM

	.MACRO __ADDW2MN
	SUBI R26,LOW(-@0-(@1))
	SBCI R27,HIGH(-@0-(@1))
	.ENDM

	.MACRO __ADDW1FN
	SUBI R30,LOW(-2*@0-(@1))
	SBCI R31,HIGH(-2*@0-(@1))
	.ENDM

	.MACRO __ADDD1FN
	SUBI R30,LOW(-2*@0-(@1))
	SBCI R31,HIGH(-2*@0-(@1))
	SBCI R22,BYTE3(-2*@0-(@1))
	.ENDM

	.MACRO __ADDD1N
	SUBI R30,LOW(-@0)
	SBCI R31,HIGH(-@0)
	SBCI R22,BYTE3(-@0)
	SBCI R23,BYTE4(-@0)
	.ENDM

	.MACRO __ADDD2N
	SUBI R26,LOW(-@0)
	SBCI R27,HIGH(-@0)
	SBCI R24,BYTE3(-@0)
	SBCI R25,BYTE4(-@0)
	.ENDM

	.MACRO __SUBD1N
	SUBI R30,LOW(@0)
	SBCI R31,HIGH(@0)
	SBCI R22,BYTE3(@0)
	SBCI R23,BYTE4(@0)
	.ENDM

	.MACRO __SUBD2N
	SUBI R26,LOW(@0)
	SBCI R27,HIGH(@0)
	SBCI R24,BYTE3(@0)
	SBCI R25,BYTE4(@0)
	.ENDM

	.MACRO __ANDBMNN
	LDS  R30,@0+(@1)
	ANDI R30,LOW(@2)
	STS  @0+(@1),R30
	.ENDM

	.MACRO __ANDWMNN
	LDS  R30,@0+(@1)
	ANDI R30,LOW(@2)
	STS  @0+(@1),R30
	LDS  R30,@0+(@1)+1
	ANDI R30,HIGH(@2)
	STS  @0+(@1)+1,R30
	.ENDM

	.MACRO __ANDD1N
	ANDI R30,LOW(@0)
	ANDI R31,HIGH(@0)
	ANDI R22,BYTE3(@0)
	ANDI R23,BYTE4(@0)
	.ENDM

	.MACRO __ANDD2N
	ANDI R26,LOW(@0)
	ANDI R27,HIGH(@0)
	ANDI R24,BYTE3(@0)
	ANDI R25,BYTE4(@0)
	.ENDM

	.MACRO __ORBMNN
	LDS  R30,@0+(@1)
	ORI  R30,LOW(@2)
	STS  @0+(@1),R30
	.ENDM

	.MACRO __ORWMNN
	LDS  R30,@0+(@1)
	ORI  R30,LOW(@2)
	STS  @0+(@1),R30
	LDS  R30,@0+(@1)+1
	ORI  R30,HIGH(@2)
	STS  @0+(@1)+1,R30
	.ENDM

	.MACRO __ORD1N
	ORI  R30,LOW(@0)
	ORI  R31,HIGH(@0)
	ORI  R22,BYTE3(@0)
	ORI  R23,BYTE4(@0)
	.ENDM

	.MACRO __ORD2N
	ORI  R26,LOW(@0)
	ORI  R27,HIGH(@0)
	ORI  R24,BYTE3(@0)
	ORI  R25,BYTE4(@0)
	.ENDM

	.MACRO __DELAY_USB
	LDI  R24,LOW(@0)
__DELAY_USB_LOOP:
	DEC  R24
	BRNE __DELAY_USB_LOOP
	.ENDM

	.MACRO __DELAY_USW
	LDI  R24,LOW(@0)
	LDI  R25,HIGH(@0)
__DELAY_USW_LOOP:
	SBIW R24,1
	BRNE __DELAY_USW_LOOP
	.ENDM

	.MACRO __GETD1S
	LDD  R30,Y+@0
	LDD  R31,Y+@0+1
	LDD  R22,Y+@0+2
	LDD  R23,Y+@0+3
	.ENDM

	.MACRO __GETD2S
	LDD  R26,Y+@0
	LDD  R27,Y+@0+1
	LDD  R24,Y+@0+2
	LDD  R25,Y+@0+3
	.ENDM

	.MACRO __PUTD1S
	STD  Y+@0,R30
	STD  Y+@0+1,R31
	STD  Y+@0+2,R22
	STD  Y+@0+3,R23
	.ENDM

	.MACRO __PUTD2S
	STD  Y+@0,R26
	STD  Y+@0+1,R27
	STD  Y+@0+2,R24
	STD  Y+@0+3,R25
	.ENDM

	.MACRO __PUTDZ2
	STD  Z+@0,R26
	STD  Z+@0+1,R27
	STD  Z+@0+2,R24
	STD  Z+@0+3,R25
	.ENDM

	.MACRO __CLRD1S
	STD  Y+@0,R30
	STD  Y+@0+1,R30
	STD  Y+@0+2,R30
	STD  Y+@0+3,R30
	.ENDM

	.MACRO __POINTB1MN
	LDI  R30,LOW(@0+(@1))
	.ENDM

	.MACRO __POINTW1MN
	LDI  R30,LOW(@0+(@1))
	LDI  R31,HIGH(@0+(@1))
	.ENDM

	.MACRO __POINTD1M
	LDI  R30,LOW(@0)
	LDI  R31,HIGH(@0)
	LDI  R22,BYTE3(@0)
	LDI  R23,BYTE4(@0)
	.ENDM

	.MACRO __POINTW1FN
	LDI  R30,LOW(2*@0+(@1))
	LDI  R31,HIGH(2*@0+(@1))
	.ENDM

	.MACRO __POINTD1FN
	LDI  R30,LOW(2*@0+(@1))
	LDI  R31,HIGH(2*@0+(@1))
	LDI  R22,BYTE3(2*@0+(@1))
	LDI  R23,BYTE4(2*@0+(@1))
	.ENDM

	.MACRO __POINTB2MN
	LDI  R26,LOW(@0+(@1))
	.ENDM

	.MACRO __POINTW2MN
	LDI  R26,LOW(@0+(@1))
	LDI  R27,HIGH(@0+(@1))
	.ENDM

	.MACRO __POINTW2FN
	LDI  R26,LOW(2*@0+(@1))
	LDI  R27,HIGH(2*@0+(@1))
	.ENDM

	.MACRO __POINTD2FN
	LDI  R26,LOW(2*@0+(@1))
	LDI  R27,HIGH(2*@0+(@1))
	LDI  R24,BYTE3(2*@0+(@1))
	LDI  R25,BYTE4(2*@0+(@1))
	.ENDM

	.MACRO __POINTBRM
	LDI  R@0,LOW(@1)
	.ENDM

	.MACRO __POINTWRM
	LDI  R@0,LOW(@2)
	LDI  R@1,HIGH(@2)
	.ENDM

	.MACRO __POINTBRMN
	LDI  R@0,LOW(@1+(@2))
	.ENDM

	.MACRO __POINTWRMN
	LDI  R@0,LOW(@2+(@3))
	LDI  R@1,HIGH(@2+(@3))
	.ENDM

	.MACRO __POINTWRFN
	LDI  R@0,LOW(@2*2+(@3))
	LDI  R@1,HIGH(@2*2+(@3))
	.ENDM

	.MACRO __GETD1N
	LDI  R30,LOW(@0)
	LDI  R31,HIGH(@0)
	LDI  R22,BYTE3(@0)
	LDI  R23,BYTE4(@0)
	.ENDM

	.MACRO __GETD2N
	LDI  R26,LOW(@0)
	LDI  R27,HIGH(@0)
	LDI  R24,BYTE3(@0)
	LDI  R25,BYTE4(@0)
	.ENDM

	.MACRO __GETB1MN
	LDS  R30,@0+(@1)
	.ENDM

	.MACRO __GETB1HMN
	LDS  R31,@0+(@1)
	.ENDM

	.MACRO __GETW1MN
	LDS  R30,@0+(@1)
	LDS  R31,@0+(@1)+1
	.ENDM

	.MACRO __GETD1MN
	LDS  R30,@0+(@1)
	LDS  R31,@0+(@1)+1
	LDS  R22,@0+(@1)+2
	LDS  R23,@0+(@1)+3
	.ENDM

	.MACRO __GETBRMN
	LDS  R@0,@1+(@2)
	.ENDM

	.MACRO __GETWRMN
	LDS  R@0,@2+(@3)
	LDS  R@1,@2+(@3)+1
	.ENDM

	.MACRO __GETWRZ
	LDD  R@0,Z+@2
	LDD  R@1,Z+@2+1
	.ENDM

	.MACRO __GETD2Z
	LDD  R26,Z+@0
	LDD  R27,Z+@0+1
	LDD  R24,Z+@0+2
	LDD  R25,Z+@0+3
	.ENDM

	.MACRO __GETB2MN
	LDS  R26,@0+(@1)
	.ENDM

	.MACRO __GETW2MN
	LDS  R26,@0+(@1)
	LDS  R27,@0+(@1)+1
	.ENDM

	.MACRO __GETD2MN
	LDS  R26,@0+(@1)
	LDS  R27,@0+(@1)+1
	LDS  R24,@0+(@1)+2
	LDS  R25,@0+(@1)+3
	.ENDM

	.MACRO __PUTB1MN
	STS  @0+(@1),R30
	.ENDM

	.MACRO __PUTW1MN
	STS  @0+(@1),R30
	STS  @0+(@1)+1,R31
	.ENDM

	.MACRO __PUTD1MN
	STS  @0+(@1),R30
	STS  @0+(@1)+1,R31
	STS  @0+(@1)+2,R22
	STS  @0+(@1)+3,R23
	.ENDM

	.MACRO __PUTB1EN
	LDI  R26,LOW(@0+(@1))
	LDI  R27,HIGH(@0+(@1))
	RCALL __EEPROMWRB
	.ENDM

	.MACRO __PUTW1EN
	LDI  R26,LOW(@0+(@1))
	LDI  R27,HIGH(@0+(@1))
	RCALL __EEPROMWRW
	.ENDM

	.MACRO __PUTD1EN
	LDI  R26,LOW(@0+(@1))
	LDI  R27,HIGH(@0+(@1))
	RCALL __EEPROMWRD
	.ENDM

	.MACRO __PUTBR0MN
	STS  @0+(@1),R0
	.ENDM

	.MACRO __PUTBMRN
	STS  @0+(@1),R@2
	.ENDM

	.MACRO __PUTWMRN
	STS  @0+(@1),R@2
	STS  @0+(@1)+1,R@3
	.ENDM

	.MACRO __PUTBZR
	STD  Z+@1,R@0
	.ENDM

	.MACRO __PUTWZR
	STD  Z+@2,R@0
	STD  Z+@2+1,R@1
	.ENDM

	.MACRO __GETW1R
	MOV  R30,R@0
	MOV  R31,R@1
	.ENDM

	.MACRO __GETW2R
	MOV  R26,R@0
	MOV  R27,R@1
	.ENDM

	.MACRO __GETWRN
	LDI  R@0,LOW(@2)
	LDI  R@1,HIGH(@2)
	.ENDM

	.MACRO __PUTW1R
	MOV  R@0,R30
	MOV  R@1,R31
	.ENDM

	.MACRO __PUTW2R
	MOV  R@0,R26
	MOV  R@1,R27
	.ENDM

	.MACRO __ADDWRN
	SUBI R@0,LOW(-@2)
	SBCI R@1,HIGH(-@2)
	.ENDM

	.MACRO __ADDWRR
	ADD  R@0,R@2
	ADC  R@1,R@3
	.ENDM

	.MACRO __SUBWRN
	SUBI R@0,LOW(@2)
	SBCI R@1,HIGH(@2)
	.ENDM

	.MACRO __SUBWRR
	SUB  R@0,R@2
	SBC  R@1,R@3
	.ENDM

	.MACRO __ANDWRN
	ANDI R@0,LOW(@2)
	ANDI R@1,HIGH(@2)
	.ENDM

	.MACRO __ANDWRR
	AND  R@0,R@2
	AND  R@1,R@3
	.ENDM

	.MACRO __ORWRN
	ORI  R@0,LOW(@2)
	ORI  R@1,HIGH(@2)
	.ENDM

	.MACRO __ORWRR
	OR   R@0,R@2
	OR   R@1,R@3
	.ENDM

	.MACRO __EORWRR
	EOR  R@0,R@2
	EOR  R@1,R@3
	.ENDM

	.MACRO __GETWRS
	LDD  R@0,Y+@2
	LDD  R@1,Y+@2+1
	.ENDM

	.MACRO __PUTBSR
	STD  Y+@1,R@0
	.ENDM

	.MACRO __PUTWSR
	STD  Y+@2,R@0
	STD  Y+@2+1,R@1
	.ENDM

	.MACRO __MOVEWRR
	MOV  R@0,R@2
	MOV  R@1,R@3
	.ENDM

	.MACRO __INWR
	IN   R@0,@2
	IN   R@1,@2+1
	.ENDM

	.MACRO __OUTWR
	OUT  @2+1,R@1
	OUT  @2,R@0
	.ENDM

	.MACRO __CALL1MN
	LDS  R30,@0+(@1)
	LDS  R31,@0+(@1)+1
	ICALL
	.ENDM

	.MACRO __CALL1FN
	LDI  R30,LOW(2*@0+(@1))
	LDI  R31,HIGH(2*@0+(@1))
	RCALL __GETW1PF
	ICALL
	.ENDM

	.MACRO __CALL2EN
	PUSH R26
	PUSH R27
	LDI  R26,LOW(@0+(@1))
	LDI  R27,HIGH(@0+(@1))
	RCALL __EEPROMRDW
	POP  R27
	POP  R26
	ICALL
	.ENDM

	.MACRO __CALL2EX
	SUBI R26,LOW(-@0)
	SBCI R27,HIGH(-@0)
	RCALL __EEPROMRDD
	ICALL
	.ENDM

	.MACRO __GETW1STACK
	IN   R30,SPL
	IN   R31,SPH
	ADIW R30,@0+1
	LD   R0,Z+
	LD   R31,Z
	MOV  R30,R0
	.ENDM

	.MACRO __GETD1STACK
	IN   R30,SPL
	IN   R31,SPH
	ADIW R30,@0+1
	LD   R0,Z+
	LD   R1,Z+
	LD   R22,Z
	MOVW R30,R0
	.ENDM

	.MACRO __NBST
	BST  R@0,@1
	IN   R30,SREG
	LDI  R31,0x40
	EOR  R30,R31
	OUT  SREG,R30
	.ENDM


	.MACRO __PUTB1SN
	LDD  R26,Y+@0
	LDD  R27,Y+@0+1
	SUBI R26,LOW(-@1)
	SBCI R27,HIGH(-@1)
	ST   X,R30
	.ENDM

	.MACRO __PUTW1SN
	LDD  R26,Y+@0
	LDD  R27,Y+@0+1
	SUBI R26,LOW(-@1)
	SBCI R27,HIGH(-@1)
	ST   X+,R30
	ST   X,R31
	.ENDM

	.MACRO __PUTD1SN
	LDD  R26,Y+@0
	LDD  R27,Y+@0+1
	SUBI R26,LOW(-@1)
	SBCI R27,HIGH(-@1)
	RCALL __PUTDP1
	.ENDM

	.MACRO __PUTB1SNS
	LDD  R26,Y+@0
	LDD  R27,Y+@0+1
	ADIW R26,@1
	ST   X,R30
	.ENDM

	.MACRO __PUTW1SNS
	LDD  R26,Y+@0
	LDD  R27,Y+@0+1
	ADIW R26,@1
	ST   X+,R30
	ST   X,R31
	.ENDM

	.MACRO __PUTD1SNS
	LDD  R26,Y+@0
	LDD  R27,Y+@0+1
	ADIW R26,@1
	RCALL __PUTDP1
	.ENDM

	.MACRO __PUTB1PMN
	LDS  R26,@0
	LDS  R27,@0+1
	SUBI R26,LOW(-@1)
	SBCI R27,HIGH(-@1)
	ST   X,R30
	.ENDM

	.MACRO __PUTW1PMN
	LDS  R26,@0
	LDS  R27,@0+1
	SUBI R26,LOW(-@1)
	SBCI R27,HIGH(-@1)
	ST   X+,R30
	ST   X,R31
	.ENDM

	.MACRO __PUTD1PMN
	LDS  R26,@0
	LDS  R27,@0+1
	SUBI R26,LOW(-@1)
	SBCI R27,HIGH(-@1)
	RCALL __PUTDP1
	.ENDM

	.MACRO __PUTB1PMNS
	LDS  R26,@0
	LDS  R27,@0+1
	ADIW R26,@1
	ST   X,R30
	.ENDM

	.MACRO __PUTW1PMNS
	LDS  R26,@0
	LDS  R27,@0+1
	ADIW R26,@1
	ST   X+,R30
	ST   X,R31
	.ENDM

	.MACRO __PUTD1PMNS
	LDS  R26,@0
	LDS  R27,@0+1
	ADIW R26,@1
	RCALL __PUTDP1
	.ENDM

	.MACRO __PUTB1RN
	MOVW R26,R@0
	SUBI R26,LOW(-@1)
	SBCI R27,HIGH(-@1)
	ST   X,R30
	.ENDM

	.MACRO __PUTW1RN
	MOVW R26,R@0
	SUBI R26,LOW(-@1)
	SBCI R27,HIGH(-@1)
	ST   X+,R30
	ST   X,R31
	.ENDM

	.MACRO __PUTD1RN
	MOVW R26,R@0
	SUBI R26,LOW(-@1)
	SBCI R27,HIGH(-@1)
	RCALL __PUTDP1
	.ENDM

	.MACRO __PUTB1RNS
	MOVW R26,R@0
	ADIW R26,@1
	ST   X,R30
	.ENDM

	.MACRO __PUTW1RNS
	MOVW R26,R@0
	ADIW R26,@1
	ST   X+,R30
	ST   X,R31
	.ENDM

	.MACRO __PUTD1RNS
	MOVW R26,R@0
	ADIW R26,@1
	RCALL __PUTDP1
	.ENDM

	.MACRO __PUTB1RON
	MOV  R26,R@0
	MOV  R27,R@1
	SUBI R26,LOW(-@2)
	SBCI R27,HIGH(-@2)
	ST   X,R30
	.ENDM

	.MACRO __PUTW1RON
	MOV  R26,R@0
	MOV  R27,R@1
	SUBI R26,LOW(-@2)
	SBCI R27,HIGH(-@2)
	ST   X+,R30
	ST   X,R31
	.ENDM

	.MACRO __PUTD1RON
	MOV  R26,R@0
	MOV  R27,R@1
	SUBI R26,LOW(-@2)
	SBCI R27,HIGH(-@2)
	RCALL __PUTDP1
	.ENDM

	.MACRO __PUTB1RONS
	MOV  R26,R@0
	MOV  R27,R@1
	ADIW R26,@2
	ST   X,R30
	.ENDM

	.MACRO __PUTW1RONS
	MOV  R26,R@0
	MOV  R27,R@1
	ADIW R26,@2
	ST   X+,R30
	ST   X,R31
	.ENDM

	.MACRO __PUTD1RONS
	MOV  R26,R@0
	MOV  R27,R@1
	ADIW R26,@2
	RCALL __PUTDP1
	.ENDM


	.MACRO __GETB1SX
	MOVW R30,R28
	SUBI R30,LOW(-@0)
	SBCI R31,HIGH(-@0)
	LD   R30,Z
	.ENDM

	.MACRO __GETB1HSX
	MOVW R30,R28
	SUBI R30,LOW(-@0)
	SBCI R31,HIGH(-@0)
	LD   R31,Z
	.ENDM

	.MACRO __GETW1SX
	MOVW R30,R28
	SUBI R30,LOW(-@0)
	SBCI R31,HIGH(-@0)
	LD   R0,Z+
	LD   R31,Z
	MOV  R30,R0
	.ENDM

	.MACRO __GETD1SX
	MOVW R30,R28
	SUBI R30,LOW(-@0)
	SBCI R31,HIGH(-@0)
	LD   R0,Z+
	LD   R1,Z+
	LD   R22,Z+
	LD   R23,Z
	MOVW R30,R0
	.ENDM

	.MACRO __GETB2SX
	MOVW R26,R28
	SUBI R26,LOW(-@0)
	SBCI R27,HIGH(-@0)
	LD   R26,X
	.ENDM

	.MACRO __GETW2SX
	MOVW R26,R28
	SUBI R26,LOW(-@0)
	SBCI R27,HIGH(-@0)
	LD   R0,X+
	LD   R27,X
	MOV  R26,R0
	.ENDM

	.MACRO __GETD2SX
	MOVW R26,R28
	SUBI R26,LOW(-@0)
	SBCI R27,HIGH(-@0)
	LD   R0,X+
	LD   R1,X+
	LD   R24,X+
	LD   R25,X
	MOVW R26,R0
	.ENDM

	.MACRO __GETBRSX
	MOVW R30,R28
	SUBI R30,LOW(-@1)
	SBCI R31,HIGH(-@1)
	LD   R@0,Z
	.ENDM

	.MACRO __GETWRSX
	MOVW R30,R28
	SUBI R30,LOW(-@2)
	SBCI R31,HIGH(-@2)
	LD   R@0,Z+
	LD   R@1,Z
	.ENDM

	.MACRO __GETBRSX2
	MOVW R26,R28
	SUBI R26,LOW(-@1)
	SBCI R27,HIGH(-@1)
	LD   R@0,X
	.ENDM

	.MACRO __GETWRSX2
	MOVW R26,R28
	SUBI R26,LOW(-@2)
	SBCI R27,HIGH(-@2)
	LD   R@0,X+
	LD   R@1,X
	.ENDM

	.MACRO __LSLW8SX
	MOVW R30,R28
	SUBI R30,LOW(-@0)
	SBCI R31,HIGH(-@0)
	LD   R31,Z
	CLR  R30
	.ENDM

	.MACRO __PUTB1SX
	MOVW R26,R28
	SUBI R26,LOW(-@0)
	SBCI R27,HIGH(-@0)
	ST   X,R30
	.ENDM

	.MACRO __PUTW1SX
	MOVW R26,R28
	SUBI R26,LOW(-@0)
	SBCI R27,HIGH(-@0)
	ST   X+,R30
	ST   X,R31
	.ENDM

	.MACRO __PUTD1SX
	MOVW R26,R28
	SUBI R26,LOW(-@0)
	SBCI R27,HIGH(-@0)
	ST   X+,R30
	ST   X+,R31
	ST   X+,R22
	ST   X,R23
	.ENDM

	.MACRO __CLRW1SX
	MOVW R26,R28
	SUBI R26,LOW(-@0)
	SBCI R27,HIGH(-@0)
	ST   X+,R30
	ST   X,R30
	.ENDM

	.MACRO __CLRD1SX
	MOVW R26,R28
	SUBI R26,LOW(-@0)
	SBCI R27,HIGH(-@0)
	ST   X+,R30
	ST   X+,R30
	ST   X+,R30
	ST   X,R30
	.ENDM

	.MACRO __PUTB2SX
	MOVW R30,R28
	SUBI R30,LOW(-@0)
	SBCI R31,HIGH(-@0)
	ST   Z,R26
	.ENDM

	.MACRO __PUTW2SX
	MOVW R30,R28
	SUBI R30,LOW(-@0)
	SBCI R31,HIGH(-@0)
	ST   Z+,R26
	ST   Z,R27
	.ENDM

	.MACRO __PUTD2SX
	MOVW R30,R28
	SUBI R30,LOW(-@0)
	SBCI R31,HIGH(-@0)
	ST   Z+,R26
	ST   Z+,R27
	ST   Z+,R24
	ST   Z,R25
	.ENDM

	.MACRO __PUTBSRX
	MOVW R30,R28
	SUBI R30,LOW(-@1)
	SBCI R31,HIGH(-@1)
	ST   Z,R@0
	.ENDM

	.MACRO __PUTWSRX
	MOVW R30,R28
	SUBI R30,LOW(-@2)
	SBCI R31,HIGH(-@2)
	ST   Z+,R@0
	ST   Z,R@1
	.ENDM

	.MACRO __PUTB1SNX
	MOVW R26,R28
	SUBI R26,LOW(-@0)
	SBCI R27,HIGH(-@0)
	LD   R0,X+
	LD   R27,X
	MOV  R26,R0
	SUBI R26,LOW(-@1)
	SBCI R27,HIGH(-@1)
	ST   X,R30
	.ENDM

	.MACRO __PUTW1SNX
	MOVW R26,R28
	SUBI R26,LOW(-@0)
	SBCI R27,HIGH(-@0)
	LD   R0,X+
	LD   R27,X
	MOV  R26,R0
	SUBI R26,LOW(-@1)
	SBCI R27,HIGH(-@1)
	ST   X+,R30
	ST   X,R31
	.ENDM

	.MACRO __PUTD1SNX
	MOVW R26,R28
	SUBI R26,LOW(-@0)
	SBCI R27,HIGH(-@0)
	LD   R0,X+
	LD   R27,X
	MOV  R26,R0
	SUBI R26,LOW(-@1)
	SBCI R27,HIGH(-@1)
	ST   X+,R30
	ST   X+,R31
	ST   X+,R22
	ST   X,R23
	.ENDM

	.MACRO __MULBRR
	MULS R@0,R@1
	MOVW R30,R0
	.ENDM

	.MACRO __MULBRRU
	MUL  R@0,R@1
	MOVW R30,R0
	.ENDM

	.MACRO __MULBRR0
	MULS R@0,R@1
	.ENDM

	.MACRO __MULBRRU0
	MUL  R@0,R@1
	.ENDM

	.MACRO __MULBNWRU
	LDI  R26,@2
	MUL  R26,R@0
	MOVW R30,R0
	MUL  R26,R@1
	ADD  R31,R0
	.ENDM

;NAME DEFINITIONS FOR GLOBAL VARIABLES ALLOCATED TO REGISTERS
	.DEF _NewState=R5
	.DEF _OldState=R4
	.DEF _OldVol=R7
	.DEF _upState=R6
	.DEF _downState=R9
	.DEF _OldBtnW=R8
	.DEF _OldBtnR=R11
	.DEF _Vol=R10
	.DEF _eeprom_rd_data=R13
	.DEF __lcd_x=R12

	.CSEG
	.ORG 0x00

;START OF CODE MARKER
__START_OF_CODE:

;INTERRUPT VECTORS
	RJMP __RESET
	RJMP 0x00
	RJMP 0x00
	RJMP 0x00
	RJMP 0x00
	RJMP 0x00
	RJMP 0x00
	RJMP 0x00
	RJMP 0x00
	RJMP _timer0_ovf_isr
	RJMP 0x00
	RJMP 0x00
	RJMP 0x00
	RJMP 0x00
	RJMP 0x00
	RJMP 0x00
	RJMP 0x00
	RJMP _twi_int_handler
	RJMP 0x00

;REGISTER BIT VARIABLES INITIALIZATION
__REG_BIT_VARS:
	.DW  0x0000

;GLOBAL REGISTER VARIABLES INITIALIZATION
__REG_VARS:
	.DB  0x7F

_0x0:
	.DB  0x53,0x65,0x6C,0x65,0x63,0x74,0x20,0x6E
	.DB  0x75,0x6D,0x20,0x3D,0x0,0x57,0x72,0x69
	.DB  0x74,0x65,0x20,0x6E,0x75,0x6D,0x20,0x3D
	.DB  0x20,0x0,0x52,0x65,0x61,0x64,0x20,0x6E
	.DB  0x75,0x6D,0x20,0x3D,0x20,0x0
_0x2000060:
	.DB  0x1
_0x2000000:
	.DB  0x2D,0x4E,0x41,0x4E,0x0,0x49,0x4E,0x46
	.DB  0x0
_0x2020003:
	.DB  0x7
_0x2040003:
	.DB  0x80,0xC0

__GLOBAL_INI_TBL:
	.DW  0x01
	.DW  0x02
	.DW  __REG_BIT_VARS*2

	.DW  0x01
	.DW  0x0A
	.DW  __REG_VARS*2

	.DW  0x0D
	.DW  _0x1D
	.DW  _0x0*2+13

	.DW  0x0C
	.DW  _0x1D+13
	.DW  _0x0*2+26

	.DW  0x01
	.DW  __seed_G100
	.DW  _0x2000060*2

	.DW  0x01
	.DW  _twi_result
	.DW  _0x2020003*2

	.DW  0x02
	.DW  __base_y_G102
	.DW  _0x2040003*2

_0xFFFFFFFF:
	.DW  0

#define __GLOBAL_INI_TBL_PRESENT 1

__RESET:
	CLI
	CLR  R30
	OUT  EECR,R30

;INTERRUPT VECTORS ARE PLACED
;AT THE START OF FLASH
	LDI  R31,1
	OUT  GICR,R31
	OUT  GICR,R30
	OUT  MCUCR,R30

;CLEAR R2-R14
	LDI  R24,(14-2)+1
	LDI  R26,2
	CLR  R27
__CLEAR_REG:
	ST   X+,R30
	DEC  R24
	BRNE __CLEAR_REG

;CLEAR SRAM
	LDI  R24,LOW(__CLEAR_SRAM_SIZE)
	LDI  R25,HIGH(__CLEAR_SRAM_SIZE)
	LDI  R26,__SRAM_START
__CLEAR_SRAM:
	ST   X+,R30
	SBIW R24,1
	BRNE __CLEAR_SRAM

;GLOBAL VARIABLES INITIALIZATION
	LDI  R30,LOW(__GLOBAL_INI_TBL*2)
	LDI  R31,HIGH(__GLOBAL_INI_TBL*2)
__GLOBAL_INI_NEXT:
	LPM  R24,Z+
	LPM  R25,Z+
	SBIW R24,0
	BREQ __GLOBAL_INI_END
	LPM  R26,Z+
	LPM  R27,Z+
	LPM  R0,Z+
	LPM  R1,Z+
	MOVW R22,R30
	MOVW R30,R0
__GLOBAL_INI_LOOP:
	LPM  R0,Z+
	ST   X+,R0
	SBIW R24,1
	BRNE __GLOBAL_INI_LOOP
	MOVW R30,R22
	RJMP __GLOBAL_INI_NEXT
__GLOBAL_INI_END:

;HARDWARE STACK POINTER INITIALIZATION
	LDI  R30,LOW(__SRAM_END-__HEAP_SIZE)
	OUT  SPL,R30
	LDI  R30,HIGH(__SRAM_END-__HEAP_SIZE)
	OUT  SPH,R30

;DATA STACK POINTER INITIALIZATION
	LDI  R28,LOW(__SRAM_START+__DSTACK_SIZE)
	LDI  R29,HIGH(__SRAM_START+__DSTACK_SIZE)

	RJMP _main

	.ESEG
	.ORG 0

	.DSEG
	.ORG 0x160

	.CSEG
;/*******************************************************
;This program was created by the
;CodeWizardAVR V3.22 Evaluation
;Automatic Program Generator
;© Copyright 1998-2015 Pavel Haiduc, HP InfoTech s.r.l.
;http://www.hpinfotech.com
;
;Project :
;Version :
;Date    : 19.01.2016
;Author  :
;Company :
;Comments:
;
;
;Chip type               : ATmega8
;Program type            : Application
;AVR Core Clock frequency: 8,000000 MHz
;Memory model            : Small
;External RAM size       : 0
;Data Stack size         : 256
;*******************************************************/
;
;#include <io.h>
	#ifndef __SLEEP_DEFINED__
	#define __SLEEP_DEFINED__
	.EQU __se_bit=0x80
	.EQU __sm_mask=0x70
	.EQU __sm_powerdown=0x20
	.EQU __sm_powersave=0x30
	.EQU __sm_standby=0x60
	.EQU __sm_ext_standby=0x70
	.EQU __sm_adc_noise_red=0x10
	.SET power_ctrl_reg=mcucr
	#endif
;#include <stdlib.h>
;#include <delay.h>
;
;// TWI functions
;#include <twi.h>
;
;// Alphanumeric LCD functions
;#include <alcd.h>
;
;// Declare your global variables here
;
;#define EEPROM_TWI_BUS_ADDRESS (0xA0 >> 1)
;
;
;unsigned char NewState, OldState, OldVol, upState, downState, OldBtnW, OldBtnR;
;unsigned char Vol = 0x7F;
;char Duty[];
;
;struct
;     {
;     struct
;          {
;          unsigned char msb;
;          unsigned char lsb;
;          } addr;
;     unsigned char data;
;     } twi_eeprom;
;
;
;unsigned char eeprom_rd_data;
;
;
;
;void EncoderScan(void);
;void LcdOut (void);
;unsigned char read_eep(int);
;void write_eep(int, unsigned char);
;
;
;
;
;// Timer 0 overflow interrupt service routine
;interrupt [TIM0_OVF] void timer0_ovf_isr(void)
; 0000 0044 {

	.CSEG
_timer0_ovf_isr:
; .FSTART _timer0_ovf_isr
	ST   -Y,R0
	ST   -Y,R1
	ST   -Y,R15
	ST   -Y,R22
	ST   -Y,R23
	ST   -Y,R24
	ST   -Y,R25
	ST   -Y,R26
	ST   -Y,R27
	ST   -Y,R30
	ST   -Y,R31
	IN   R30,SREG
	ST   -Y,R30
; 0000 0045     // Reinitialize Timer 0 value
; 0000 0046     TCNT0=0xCE;
	LDI  R30,LOW(206)
	OUT  0x32,R30
; 0000 0047     // Place your code here
; 0000 0048     EncoderScan();
	RCALL _EncoderScan
; 0000 0049 
; 0000 004A }
	LD   R30,Y+
	OUT  SREG,R30
	LD   R31,Y+
	LD   R30,Y+
	LD   R27,Y+
	LD   R26,Y+
	LD   R25,Y+
	LD   R24,Y+
	LD   R23,Y+
	LD   R22,Y+
	LD   R15,Y+
	LD   R1,Y+
	LD   R0,Y+
	RETI
; .FEND
;
;void EncoderScan(void)
; 0000 004D {
_EncoderScan:
; .FSTART _EncoderScan
; 0000 004E     NewState = PINB & 0x03;
	IN   R30,0x16
	ANDI R30,LOW(0x3)
	MOV  R5,R30
; 0000 004F     if (NewState != OldState) {
	CP   R4,R5
	BRNE PC+2
	RJMP _0x3
; 0000 0050         switch (OldState) {
	MOV  R30,R4
	LDI  R31,0
; 0000 0051             case 2:
	CPI  R30,LOW(0x2)
	LDI  R26,HIGH(0x2)
	CPC  R31,R26
	BRNE _0x7
; 0000 0052                 {
; 0000 0053                 if (NewState == 3)upState++;
	LDI  R30,LOW(3)
	CP   R30,R5
	BRNE _0x8
	INC  R6
; 0000 0054                 if (NewState == 0)downState++;
_0x8:
	TST  R5
	BRNE _0x9
	INC  R9
; 0000 0055                 break;
_0x9:
	RJMP _0x6
; 0000 0056                 }
; 0000 0057             case 0:
_0x7:
	SBIW R30,0
	BRNE _0xA
; 0000 0058                 {
; 0000 0059                 if (NewState == 2)upState++;
	LDI  R30,LOW(2)
	CP   R30,R5
	BRNE _0xB
	INC  R6
; 0000 005A                 if (NewState == 1)downState++;
_0xB:
	LDI  R30,LOW(1)
	CP   R30,R5
	BRNE _0xC
	INC  R9
; 0000 005B                 break;
_0xC:
	RJMP _0x6
; 0000 005C                 }
; 0000 005D             case 1:
_0xA:
	CPI  R30,LOW(0x1)
	LDI  R26,HIGH(0x1)
	CPC  R31,R26
	BRNE _0xD
; 0000 005E                 {
; 0000 005F                 if (NewState == 0)upState++;
	TST  R5
	BRNE _0xE
	INC  R6
; 0000 0060                 if (NewState == 3)downState++;
_0xE:
	LDI  R30,LOW(3)
	CP   R30,R5
	BRNE _0xF
	INC  R9
; 0000 0061                 break;
_0xF:
	RJMP _0x6
; 0000 0062                 }
; 0000 0063             case 3:
_0xD:
	CPI  R30,LOW(0x3)
	LDI  R26,HIGH(0x3)
	CPC  R31,R26
	BRNE _0x6
; 0000 0064                 {
; 0000 0065                 if (NewState == 1)upState++;
	LDI  R30,LOW(1)
	CP   R30,R5
	BRNE _0x11
	INC  R6
; 0000 0066                 if (NewState == 2)downState++;
_0x11:
	LDI  R30,LOW(2)
	CP   R30,R5
	BRNE _0x12
	INC  R9
; 0000 0067                 break;
_0x12:
; 0000 0068                 }
; 0000 0069         };
_0x6:
; 0000 006A         OldState = NewState;
	MOV  R4,R5
; 0000 006B         if (upState >= 4) {
	LDI  R30,LOW(4)
	CP   R6,R30
	BRLO _0x13
; 0000 006C             Vol+=1;
	INC  R10
; 0000 006D             upState = 0;
	CLR  R6
; 0000 006E         };
_0x13:
; 0000 006F         if (downState >= 4) {
	LDI  R30,LOW(4)
	CP   R9,R30
	BRLO _0x14
; 0000 0070             Vol-=1;
	DEC  R10
; 0000 0071             downState = 0;
	CLR  R9
; 0000 0072         };
_0x14:
; 0000 0073         if (Vol > 255) Vol = 255;
	LDI  R30,LOW(255)
	CP   R30,R10
	BRSH _0x15
	MOV  R10,R30
; 0000 0074         if (Vol < 0) Vol = 0;
_0x15:
; 0000 0075 
; 0000 0076     };
_0x3:
; 0000 0077 
; 0000 0078 }
	RET
; .FEND
;
;void LcdOut (void)
; 0000 007B {
_LcdOut:
; .FSTART _LcdOut
; 0000 007C 
; 0000 007D      lcd_clear();
	RCALL _lcd_clear
; 0000 007E      lcd_putsf("Select num =");
	__POINTW2FN _0x0,0
	RCALL _lcd_putsf
; 0000 007F      itoa(Vol,Duty);
	RCALL SUBOPT_0x0
; 0000 0080      lcd_puts(Duty);
; 0000 0081 
; 0000 0082 }
	RET
; .FEND
;
;
;
;unsigned char read_eep(int adr)
; 0000 0087 {
_read_eep:
; .FSTART _read_eep
; 0000 0088      twi_eeprom.addr.msb = (adr >> 8)& 0xFF;
	RCALL SUBOPT_0x1
;	adr -> Y+0
	LD   R30,Y
	LDD  R31,Y+1
	RCALL __ASRW8
	STS  _twi_eeprom,R30
; 0000 0089      twi_eeprom.addr.lsb = adr & 0xFF;
	LD   R30,Y
	__PUTB1MN _twi_eeprom,1
; 0000 008A      twi_master_trans(EEPROM_TWI_BUS_ADDRESS,(unsigned char *) &twi_eeprom,2,&eeprom_rd_data,1);
	RCALL SUBOPT_0x2
	LDI  R30,LOW(2)
	ST   -Y,R30
	LDI  R30,LOW(13)
	LDI  R31,HIGH(13)
	RCALL SUBOPT_0x3
	LDI  R26,LOW(1)
	RCALL _twi_master_trans
; 0000 008B      return eeprom_rd_data;
	MOV  R30,R13
	RJMP _0x20C0004
; 0000 008C }
; .FEND
;
;void write_eep(int adr, unsigned char data)
; 0000 008F {
_write_eep:
; .FSTART _write_eep
; 0000 0090     twi_eeprom.addr.msb = (adr >> 8) & 0xFF;
	ST   -Y,R26
;	adr -> Y+1
;	data -> Y+0
	LDD  R30,Y+1
	LDD  R31,Y+1+1
	RCALL __ASRW8
	STS  _twi_eeprom,R30
; 0000 0091     twi_eeprom.addr.lsb = adr & 0xFF;
	LDD  R30,Y+1
	__PUTB1MN _twi_eeprom,1
; 0000 0092     twi_eeprom.data = data;
	LD   R30,Y
	__PUTB1MN _twi_eeprom,2
; 0000 0093     twi_master_trans(EEPROM_TWI_BUS_ADDRESS,(unsigned char *) &twi_eeprom,3,0,0);
	RCALL SUBOPT_0x2
	LDI  R30,LOW(3)
	ST   -Y,R30
	LDI  R30,LOW(0)
	LDI  R31,HIGH(0)
	RCALL SUBOPT_0x3
	LDI  R26,LOW(0)
	RCALL _twi_master_trans
; 0000 0094     delay_ms(10);
	RCALL SUBOPT_0x4
; 0000 0095 
; 0000 0096 }
	RJMP _0x20C0003
; .FEND
;
;
;
;
;
;void main(void)
; 0000 009D {
_main:
; .FSTART _main
; 0000 009E // Declare your local variables here
; 0000 009F 
; 0000 00A0 
; 0000 00A1 
; 0000 00A2 // Input/Output Ports initialization
; 0000 00A3 // Port B initialization
; 0000 00A4 // Function: Bit7=In Bit6=In Bit5=In Bit4=In Bit3=In Bit2=In Bit1=In Bit0=In
; 0000 00A5 DDRB=(0<<DDB7) | (0<<DDB6) | (0<<DDB5) | (0<<DDB4) | (0<<DDB3) | (0<<DDB2) | (0<<DDB1) | (0<<DDB0);
	LDI  R30,LOW(0)
	OUT  0x17,R30
; 0000 00A6 // State: Bit7=T Bit6=T Bit5=T Bit4=T Bit3=P Bit2=P Bit1=P Bit0=P
; 0000 00A7 PORTB=(0<<PORTB7) | (0<<PORTB6) | (0<<PORTB5) | (0<<PORTB4) | (1<<PORTB3) | (1<<PORTB2) | (1<<PORTB1) | (1<<PORTB0);
	LDI  R30,LOW(15)
	OUT  0x18,R30
; 0000 00A8 
; 0000 00A9 // Port C initialization
; 0000 00AA // Function: Bit6=In Bit5=In Bit4=In Bit3=In Bit2=In Bit1=In Bit0=In
; 0000 00AB DDRC=(0<<DDC6) | (0<<DDC5) | (0<<DDC4) | (0<<DDC3) | (0<<DDC2) | (0<<DDC1) | (0<<DDC0);
	LDI  R30,LOW(0)
	OUT  0x14,R30
; 0000 00AC // State: Bit6=T Bit5=T Bit4=T Bit3=T Bit2=T Bit1=T Bit0=T
; 0000 00AD PORTC=(0<<PORTC6) | (0<<PORTC5) | (0<<PORTC4) | (0<<PORTC3) | (0<<PORTC2) | (0<<PORTC1) | (0<<PORTC0);
	OUT  0x15,R30
; 0000 00AE 
; 0000 00AF // Port D initialization
; 0000 00B0 // Function: Bit7=In Bit6=Out Bit5=Out Bit4=Out Bit3=Out Bit2=Out Bit1=Out Bit0=Out
; 0000 00B1 DDRD=(0<<DDD7) | (1<<DDD6) | (1<<DDD5) | (1<<DDD4) | (1<<DDD3) | (1<<DDD2) | (1<<DDD1) | (1<<DDD0);
	LDI  R30,LOW(127)
	OUT  0x11,R30
; 0000 00B2 // State: Bit7=T Bit6=0 Bit5=0 Bit4=0 Bit3=0 Bit2=0 Bit1=0 Bit0=0
; 0000 00B3 PORTD=(0<<PORTD7) | (0<<PORTD6) | (0<<PORTD5) | (0<<PORTD4) | (0<<PORTD3) | (0<<PORTD2) | (0<<PORTD1) | (0<<PORTD0);
	LDI  R30,LOW(0)
	OUT  0x12,R30
; 0000 00B4 
; 0000 00B5 // Timer/Counter 0 initialization
; 0000 00B6 // Clock source: System Clock
; 0000 00B7 // Clock value: 125,000 kHz
; 0000 00B8 TCCR0=(0<<CS02) | (1<<CS01) | (1<<CS00);
	LDI  R30,LOW(3)
	OUT  0x33,R30
; 0000 00B9 TCNT0=0xCE;
	LDI  R30,LOW(206)
	OUT  0x32,R30
; 0000 00BA 
; 0000 00BB // Timer/Counter 1 initialization
; 0000 00BC // Clock source: System Clock
; 0000 00BD // Clock value: Timer1 Stopped
; 0000 00BE // Mode: Normal top=0xFFFF
; 0000 00BF // OC1A output: Disconnected
; 0000 00C0 // OC1B output: Disconnected
; 0000 00C1 // Noise Canceler: Off
; 0000 00C2 // Input Capture on Falling Edge
; 0000 00C3 // Timer1 Overflow Interrupt: Off
; 0000 00C4 // Input Capture Interrupt: Off
; 0000 00C5 // Compare A Match Interrupt: Off
; 0000 00C6 // Compare B Match Interrupt: Off
; 0000 00C7 TCCR1A=(0<<COM1A1) | (0<<COM1A0) | (0<<COM1B1) | (0<<COM1B0) | (0<<WGM11) | (0<<WGM10);
	LDI  R30,LOW(0)
	OUT  0x2F,R30
; 0000 00C8 TCCR1B=(0<<ICNC1) | (0<<ICES1) | (0<<WGM13) | (0<<WGM12) | (0<<CS12) | (0<<CS11) | (0<<CS10);
	OUT  0x2E,R30
; 0000 00C9 TCNT1H=0x00;
	OUT  0x2D,R30
; 0000 00CA TCNT1L=0x00;
	OUT  0x2C,R30
; 0000 00CB ICR1H=0x00;
	OUT  0x27,R30
; 0000 00CC ICR1L=0x00;
	OUT  0x26,R30
; 0000 00CD OCR1AH=0x00;
	OUT  0x2B,R30
; 0000 00CE OCR1AL=0x00;
	OUT  0x2A,R30
; 0000 00CF OCR1BH=0x00;
	OUT  0x29,R30
; 0000 00D0 OCR1BL=0x00;
	OUT  0x28,R30
; 0000 00D1 
; 0000 00D2 // Timer/Counter 2 initialization
; 0000 00D3 // Clock source: System Clock
; 0000 00D4 // Clock value: Timer2 Stopped
; 0000 00D5 // Mode: Normal top=0xFF
; 0000 00D6 // OC2 output: Disconnected
; 0000 00D7 ASSR=0<<AS2;
	OUT  0x22,R30
; 0000 00D8 TCCR2=(0<<PWM2) | (0<<COM21) | (0<<COM20) | (0<<CTC2) | (0<<CS22) | (0<<CS21) | (0<<CS20);
	OUT  0x25,R30
; 0000 00D9 TCNT2=0x00;
	OUT  0x24,R30
; 0000 00DA OCR2=0x00;
	OUT  0x23,R30
; 0000 00DB 
; 0000 00DC // Timer(s)/Counter(s) Interrupt(s) initialization
; 0000 00DD TIMSK=(0<<OCIE2) | (0<<TOIE2) | (0<<TICIE1) | (0<<OCIE1A) | (0<<OCIE1B) | (0<<TOIE1) | (1<<TOIE0);
	LDI  R30,LOW(1)
	OUT  0x39,R30
; 0000 00DE 
; 0000 00DF // External Interrupt(s) initialization
; 0000 00E0 // INT0: Off
; 0000 00E1 // INT1: Off
; 0000 00E2 MCUCR=(0<<ISC11) | (0<<ISC10) | (0<<ISC01) | (0<<ISC00);
	LDI  R30,LOW(0)
	OUT  0x35,R30
; 0000 00E3 
; 0000 00E4 // USART initialization
; 0000 00E5 // USART disabled
; 0000 00E6 UCSRB=(0<<RXCIE) | (0<<TXCIE) | (0<<UDRIE) | (0<<RXEN) | (0<<TXEN) | (0<<UCSZ2) | (0<<RXB8) | (0<<TXB8);
	OUT  0xA,R30
; 0000 00E7 
; 0000 00E8 // Analog Comparator initialization
; 0000 00E9 // Analog Comparator: Off
; 0000 00EA // The Analog Comparator's positive input is
; 0000 00EB // connected to the AIN0 pin
; 0000 00EC // The Analog Comparator's negative input is
; 0000 00ED // connected to the AIN1 pin
; 0000 00EE ACSR=(1<<ACD) | (0<<ACBG) | (0<<ACO) | (0<<ACI) | (0<<ACIE) | (0<<ACIC) | (0<<ACIS1) | (0<<ACIS0);
	LDI  R30,LOW(128)
	OUT  0x8,R30
; 0000 00EF SFIOR=(0<<ACME);
	LDI  R30,LOW(0)
	OUT  0x30,R30
; 0000 00F0 
; 0000 00F1 // ADC initialization
; 0000 00F2 // ADC disabled
; 0000 00F3 ADCSRA=(0<<ADEN) | (0<<ADSC) | (0<<ADFR) | (0<<ADIF) | (0<<ADIE) | (0<<ADPS2) | (0<<ADPS1) | (0<<ADPS0);
	OUT  0x6,R30
; 0000 00F4 
; 0000 00F5 // SPI initialization
; 0000 00F6 // SPI disabled
; 0000 00F7 SPCR=(0<<SPIE) | (0<<SPE) | (0<<DORD) | (0<<MSTR) | (0<<CPOL) | (0<<CPHA) | (0<<SPR1) | (0<<SPR0);
	OUT  0xD,R30
; 0000 00F8 
; 0000 00F9 // TWI initialization
; 0000 00FA // Mode: TWI Master
; 0000 00FB // Bit Rate: 100 kHz
; 0000 00FC twi_master_init(100);
	LDI  R26,LOW(100)
	LDI  R27,0
	RCALL _twi_master_init
; 0000 00FD 
; 0000 00FE // Alphanumeric LCD initialization
; 0000 00FF // Connections are specified in the
; 0000 0100 // Project|Configure|C Compiler|Libraries|Alphanumeric LCD menu:
; 0000 0101 // RS - PORTD Bit 0
; 0000 0102 // RD - PORTD Bit 1
; 0000 0103 // EN - PORTD Bit 2
; 0000 0104 // D4 - PORTD Bit 3
; 0000 0105 // D5 - PORTD Bit 4
; 0000 0106 // D6 - PORTD Bit 5
; 0000 0107 // D7 - PORTD Bit 6
; 0000 0108 // Characters/line: 16
; 0000 0109 lcd_init(16);
	LDI  R26,LOW(16)
	RCALL _lcd_init
; 0000 010A 
; 0000 010B // Globally enable interrupts
; 0000 010C #asm("sei")
	sei
; 0000 010D 
; 0000 010E while (1)
_0x17:
; 0000 010F       {
; 0000 0110       // Place your code here
; 0000 0111       if (Vol != OldVol) {
	CP   R7,R10
	BREQ _0x1A
; 0000 0112           LcdOut();
	RCALL _LcdOut
; 0000 0113           OldVol = Vol;
	MOV  R7,R10
; 0000 0114         };
_0x1A:
; 0000 0115       if(~PINB.2)
	SBIC 0x16,2
	RJMP _0x1B
; 0000 0116           {
; 0000 0117               delay_ms(10);
	RCALL SUBOPT_0x4
; 0000 0118               if((~PINB.2)&(~OldBtnW))
	LDI  R26,0
	SBIS 0x16,2
	LDI  R26,1
	MOV  R30,R8
	COM  R30
	AND  R30,R26
	BREQ _0x1C
; 0000 0119                 {
; 0000 011A                     write_eep(0x0012,Vol);
	LDI  R30,LOW(18)
	LDI  R31,HIGH(18)
	RCALL SUBOPT_0x3
	MOV  R26,R10
	RCALL _write_eep
; 0000 011B                     lcd_clear();
	RCALL SUBOPT_0x5
; 0000 011C                     lcd_gotoxy(0, 1);
; 0000 011D                     lcd_puts("Write num = ");
	__POINTW2MN _0x1D,0
	RCALL _lcd_puts
; 0000 011E                     itoa(Vol,Duty);
	RCALL SUBOPT_0x0
; 0000 011F                     lcd_puts(Duty);
; 0000 0120                     OldBtnW=1;
	LDI  R30,LOW(1)
	MOV  R8,R30
; 0000 0121 
; 0000 0122                 };
_0x1C:
; 0000 0123            }else
	RJMP _0x1E
_0x1B:
; 0000 0124                {
; 0000 0125                     OldBtnW=0;
	CLR  R8
; 0000 0126                };
_0x1E:
; 0000 0127       if(~PINB.3)
	SBIC 0x16,3
	RJMP _0x1F
; 0000 0128           {
; 0000 0129               delay_ms(10);
	RCALL SUBOPT_0x4
; 0000 012A               if((~PINB.3)&(~OldBtnR))
	LDI  R26,0
	SBIS 0x16,3
	LDI  R26,1
	MOV  R30,R11
	COM  R30
	AND  R30,R26
	BREQ _0x20
; 0000 012B                 {
; 0000 012C                     lcd_clear();
	RCALL SUBOPT_0x5
; 0000 012D                     lcd_gotoxy(0, 1);
; 0000 012E                     lcd_puts("Read num = ");
	__POINTW2MN _0x1D,13
	RCALL _lcd_puts
; 0000 012F                     itoa(read_eep(0x0012),Duty);
	LDI  R26,LOW(18)
	LDI  R27,0
	RCALL _read_eep
	LDI  R31,0
	RCALL SUBOPT_0x3
	LDI  R26,LOW(_Duty)
	LDI  R27,HIGH(_Duty)
	RCALL _itoa
; 0000 0130                     lcd_puts(Duty);
	LDI  R26,LOW(_Duty)
	LDI  R27,HIGH(_Duty)
	RCALL _lcd_puts
; 0000 0131                     OldBtnR=1;
	LDI  R30,LOW(1)
	MOV  R11,R30
; 0000 0132                 };
_0x20:
; 0000 0133           }else
	RJMP _0x21
_0x1F:
; 0000 0134             {
; 0000 0135                OldBtnR=0;
	CLR  R11
; 0000 0136             };
_0x21:
; 0000 0137       }
	RJMP _0x17
; 0000 0138 }
_0x22:
	RJMP _0x22
; .FEND

	.DSEG
_0x1D:
	.BYTE 0x19

	.CSEG
_itoa:
; .FSTART _itoa
	RCALL SUBOPT_0x1
    ld   r26,y+
    ld   r27,y+
    ld   r30,y+
    ld   r31,y+
    adiw r30,0
    brpl __itoa0
    com  r30
    com  r31
    adiw r30,1
    ldi  r22,'-'
    st   x+,r22
__itoa0:
    clt
    ldi  r24,low(10000)
    ldi  r25,high(10000)
    rcall __itoa1
    ldi  r24,low(1000)
    ldi  r25,high(1000)
    rcall __itoa1
    ldi  r24,100
    clr  r25
    rcall __itoa1
    ldi  r24,10
    rcall __itoa1
    mov  r22,r30
    rcall __itoa5
    clr  r22
    st   x,r22
    ret

__itoa1:
    clr	 r22
__itoa2:
    cp   r30,r24
    cpc  r31,r25
    brlo __itoa3
    inc  r22
    sub  r30,r24
    sbc  r31,r25
    brne __itoa2
__itoa3:
    tst  r22
    brne __itoa4
    brts __itoa5
    ret
__itoa4:
    set
__itoa5:
    subi r22,-0x30
    st   x+,r22
    ret
; .FEND

	.DSEG

	.CSEG
	#ifndef __SLEEP_DEFINED__
	#define __SLEEP_DEFINED__
	.EQU __se_bit=0x80
	.EQU __sm_mask=0x70
	.EQU __sm_powerdown=0x20
	.EQU __sm_powersave=0x30
	.EQU __sm_standby=0x60
	.EQU __sm_ext_standby=0x70
	.EQU __sm_adc_noise_red=0x10
	.SET power_ctrl_reg=mcucr
	#endif

	.DSEG

	.CSEG
_twi_master_init:
; .FSTART _twi_master_init
	RCALL SUBOPT_0x1
	ST   -Y,R17
	SET
	BLD  R2,1
	LDI  R30,LOW(7)
	STS  _twi_result,R30
	LDI  R30,LOW(0)
	STS  _twi_slave_rx_handler_G101,R30
	STS  _twi_slave_rx_handler_G101+1,R30
	STS  _twi_slave_tx_handler_G101,R30
	STS  _twi_slave_tx_handler_G101+1,R30
	SBI  0x15,4
	SBI  0x15,5
	OUT  0x36,R30
	IN   R30,0x1
	ANDI R30,LOW(0xFC)
	OUT  0x1,R30
	LDD  R30,Y+1
	LDD  R31,Y+1+1
	LDI  R26,LOW(4000)
	LDI  R27,HIGH(4000)
	RCALL __DIVW21U
	MOV  R17,R30
	CPI  R17,8
	BRLO _0x2020004
	SUBI R17,LOW(8)
_0x2020004:
	OUT  0x0,R17
	IN   R30,0x36
	ANDI R30,LOW(0x80)
	ORI  R30,LOW(0x45)
	OUT  0x36,R30
	RJMP _0x20C0002
; .FEND
_twi_master_trans:
; .FSTART _twi_master_trans
	ST   -Y,R26
	SBIW R28,4
	SBRS R2,1
	RJMP _0x2020005
	LDD  R30,Y+10
	LSL  R30
	STS  _slave_address_G101,R30
	LDD  R30,Y+8
	LDD  R31,Y+8+1
	STS  _twi_tx_buffer_G101,R30
	STS  _twi_tx_buffer_G101+1,R31
	LDI  R30,LOW(0)
	STS  _twi_tx_index,R30
	LDD  R30,Y+7
	STS  _bytes_to_tx_G101,R30
	LDD  R30,Y+5
	LDD  R31,Y+5+1
	STS  _twi_rx_buffer_G101,R30
	STS  _twi_rx_buffer_G101+1,R31
	LDI  R30,LOW(0)
	STS  _twi_rx_index,R30
	LDD  R30,Y+4
	STS  _bytes_to_rx_G101,R30
	LDI  R30,LOW(6)
	STS  _twi_result,R30
	sei
	LDD  R30,Y+7
	CPI  R30,0
	BREQ _0x2020006
	LDD  R30,Y+8
	LDD  R31,Y+8+1
	SBIW R30,0
	BREQ _0x20C0006
	LDD  R30,Y+4
	CPI  R30,0
	BREQ _0x2020009
	LDD  R26,Y+5
	LDD  R27,Y+5+1
	SBIW R26,0
	BREQ _0x202000A
_0x2020009:
	RJMP _0x2020008
_0x202000A:
	RJMP _0x20C0006
_0x2020008:
	SET
	RJMP _0x2020065
_0x2020006:
	LDD  R30,Y+4
	CPI  R30,0
	BREQ _0x202000C
	LDD  R30,Y+5
	LDD  R31,Y+5+1
	SBIW R30,0
	BREQ _0x20C0006
	LDS  R30,_slave_address_G101
	ORI  R30,1
	STS  _slave_address_G101,R30
	CLT
_0x2020065:
	BLD  R2,0
	CLT
	BLD  R2,1
	IN   R30,0x36
	ANDI R30,LOW(0xF)
	ORI  R30,LOW(0xA0)
	OUT  0x36,R30
	__GETD1N 0x7A120
	RCALL SUBOPT_0x6
_0x202000E:
	SBRC R2,1
	RJMP _0x2020010
	RCALL __GETD1S0
	SBIW R30,1
	SBCI R22,0
	SBCI R23,0
	RCALL SUBOPT_0x6
	BRNE _0x2020011
	LDI  R30,LOW(5)
	STS  _twi_result,R30
	SET
	BLD  R2,1
	RJMP _0x20C0006
_0x2020011:
	RJMP _0x202000E
_0x2020010:
_0x202000C:
	LDS  R26,_twi_result
	LDI  R30,LOW(0)
	RCALL __EQB12
	RJMP _0x20C0005
_0x2020005:
_0x20C0006:
	LDI  R30,LOW(0)
_0x20C0005:
	ADIW R28,11
	RET
; .FEND
_twi_int_handler:
; .FSTART _twi_int_handler
	ST   -Y,R0
	ST   -Y,R1
	ST   -Y,R15
	ST   -Y,R22
	ST   -Y,R23
	ST   -Y,R24
	ST   -Y,R25
	ST   -Y,R26
	ST   -Y,R27
	ST   -Y,R30
	ST   -Y,R31
	IN   R30,SREG
	ST   -Y,R30
	RCALL __SAVELOCR6
	LDS  R17,_twi_rx_index
	LDS  R16,_twi_tx_index
	LDS  R19,_bytes_to_tx_G101
	LDS  R18,_twi_result
	MOV  R30,R17
	LDS  R26,_twi_rx_buffer_G101
	LDS  R27,_twi_rx_buffer_G101+1
	LDI  R31,0
	ADD  R30,R26
	ADC  R31,R27
	MOVW R20,R30
	IN   R30,0x1
	ANDI R30,LOW(0xF8)
	CPI  R30,LOW(0x8)
	BRNE _0x2020017
	LDI  R18,LOW(0)
	RJMP _0x2020018
_0x2020017:
	CPI  R30,LOW(0x10)
	BRNE _0x2020019
_0x2020018:
	LDS  R30,_slave_address_G101
	RJMP _0x2020067
_0x2020019:
	CPI  R30,LOW(0x18)
	BREQ _0x202001D
	CPI  R30,LOW(0x28)
	BRNE _0x202001E
_0x202001D:
	CP   R16,R19
	BRSH _0x202001F
	MOV  R30,R16
	SUBI R16,-1
	LDS  R26,_twi_tx_buffer_G101
	LDS  R27,_twi_tx_buffer_G101+1
	LDI  R31,0
	ADD  R26,R30
	ADC  R27,R31
	LD   R30,X
_0x2020067:
	OUT  0x3,R30
	IN   R30,0x36
	ANDI R30,LOW(0xF)
	ORI  R30,0x80
	OUT  0x36,R30
	RJMP _0x2020020
_0x202001F:
	LDS  R30,_bytes_to_rx_G101
	CP   R17,R30
	BRSH _0x2020021
	LDS  R30,_slave_address_G101
	ORI  R30,1
	STS  _slave_address_G101,R30
	CLT
	BLD  R2,0
	IN   R30,0x36
	ANDI R30,LOW(0xF)
	ORI  R30,LOW(0xA0)
	OUT  0x36,R30
	RJMP _0x2020016
_0x2020021:
	RJMP _0x2020022
_0x2020020:
	RJMP _0x2020016
_0x202001E:
	CPI  R30,LOW(0x50)
	BRNE _0x2020023
	IN   R30,0x3
	MOVW R26,R20
	ST   X,R30
	SUBI R17,-LOW(1)
	RJMP _0x2020024
_0x2020023:
	CPI  R30,LOW(0x40)
	BRNE _0x2020025
_0x2020024:
	LDS  R30,_bytes_to_rx_G101
	SUBI R30,LOW(1)
	CP   R17,R30
	BRLO _0x2020026
	IN   R30,0x36
	ANDI R30,LOW(0xF)
	ORI  R30,0x80
	RJMP _0x2020068
_0x2020026:
	IN   R30,0x36
	ANDI R30,LOW(0xF)
	ORI  R30,LOW(0xC0)
_0x2020068:
	OUT  0x36,R30
	RJMP _0x2020016
_0x2020025:
	CPI  R30,LOW(0x58)
	BRNE _0x2020028
	IN   R30,0x3
	MOVW R26,R20
	ST   X,R30
	SUBI R17,-LOW(1)
	RJMP _0x2020029
_0x2020028:
	CPI  R30,LOW(0x20)
	BRNE _0x202002A
_0x2020029:
	RJMP _0x202002B
_0x202002A:
	CPI  R30,LOW(0x30)
	BRNE _0x202002C
_0x202002B:
	RJMP _0x202002D
_0x202002C:
	CPI  R30,LOW(0x48)
	BRNE _0x202002E
_0x202002D:
	CPI  R18,0
	BRNE _0x202002F
	SBRS R2,0
	RJMP _0x2020030
	CP   R16,R19
	BRLO _0x2020032
	RJMP _0x2020033
_0x2020030:
	LDS  R30,_bytes_to_rx_G101
	CP   R17,R30
	BRSH _0x2020034
_0x2020032:
	LDI  R18,LOW(4)
_0x2020034:
_0x2020033:
_0x202002F:
_0x2020022:
	RJMP _0x2020069
_0x202002E:
	CPI  R30,LOW(0x38)
	BRNE _0x2020037
	LDI  R18,LOW(2)
	IN   R30,0x36
	ANDI R30,LOW(0xF)
	ORI  R30,0x80
	RJMP _0x202006A
_0x2020037:
	CPI  R30,LOW(0x68)
	BREQ _0x202003A
	CPI  R30,LOW(0x78)
	BRNE _0x202003B
_0x202003A:
	LDI  R18,LOW(2)
	RJMP _0x202003C
_0x202003B:
	CPI  R30,LOW(0x60)
	BREQ _0x202003F
	CPI  R30,LOW(0x70)
	BRNE _0x2020040
_0x202003F:
	LDI  R18,LOW(0)
_0x202003C:
	LDI  R17,LOW(0)
	CLT
	BLD  R2,0
	LDS  R30,_twi_rx_buffer_size_G101
	CPI  R30,0
	BRNE _0x2020041
	LDI  R18,LOW(1)
	IN   R30,0x36
	ANDI R30,LOW(0xF)
	ORI  R30,0x80
	RJMP _0x202006B
_0x2020041:
	IN   R30,0x36
	ANDI R30,LOW(0xF)
	ORI  R30,LOW(0xC0)
_0x202006B:
	OUT  0x36,R30
	RJMP _0x2020016
_0x2020040:
	CPI  R30,LOW(0x80)
	BREQ _0x2020044
	CPI  R30,LOW(0x90)
	BRNE _0x2020045
_0x2020044:
	SBRS R2,0
	RJMP _0x2020046
	LDI  R18,LOW(1)
	RJMP _0x2020047
_0x2020046:
	IN   R30,0x3
	MOVW R26,R20
	ST   X,R30
	SUBI R17,-LOW(1)
	LDS  R30,_twi_rx_buffer_size_G101
	CP   R17,R30
	BRSH _0x2020048
	LDS  R30,_twi_slave_rx_handler_G101
	LDS  R31,_twi_slave_rx_handler_G101+1
	SBIW R30,0
	BRNE _0x2020049
	LDI  R18,LOW(6)
	RJMP _0x2020047
_0x2020049:
	LDI  R26,LOW(0)
	__CALL1MN _twi_slave_rx_handler_G101,0
	CPI  R30,0
	BREQ _0x202004A
	IN   R30,0x36
	ANDI R30,LOW(0xF)
	ORI  R30,LOW(0xC0)
	OUT  0x36,R30
	RJMP _0x2020016
_0x202004A:
	RJMP _0x202004B
_0x2020048:
	SET
	BLD  R2,0
_0x202004B:
	RJMP _0x202004C
_0x2020045:
	CPI  R30,LOW(0x88)
	BRNE _0x202004D
_0x202004C:
	RJMP _0x202004E
_0x202004D:
	CPI  R30,LOW(0x98)
	BRNE _0x202004F
_0x202004E:
	IN   R30,0x36
	ANDI R30,LOW(0xF)
	ORI  R30,0x80
	OUT  0x36,R30
	RJMP _0x2020016
_0x202004F:
	CPI  R30,LOW(0xA0)
	BRNE _0x2020050
	IN   R30,0x36
	ANDI R30,LOW(0xF)
	ORI  R30,LOW(0xC0)
	OUT  0x36,R30
	SET
	BLD  R2,1
	LDS  R30,_twi_slave_rx_handler_G101
	LDS  R31,_twi_slave_rx_handler_G101+1
	SBIW R30,0
	BREQ _0x2020051
	LDI  R26,LOW(1)
	__CALL1MN _twi_slave_rx_handler_G101,0
	RJMP _0x2020052
_0x2020051:
	LDI  R18,LOW(6)
_0x2020052:
	RJMP _0x2020016
_0x2020050:
	CPI  R30,LOW(0xB0)
	BRNE _0x2020053
	LDI  R18,LOW(2)
	RJMP _0x2020054
_0x2020053:
	CPI  R30,LOW(0xA8)
	BRNE _0x2020055
_0x2020054:
	LDS  R30,_twi_slave_tx_handler_G101
	LDS  R31,_twi_slave_tx_handler_G101+1
	SBIW R30,0
	BREQ _0x2020056
	LDI  R26,LOW(0)
	__CALL1MN _twi_slave_tx_handler_G101,0
	MOV  R19,R30
	CPI  R30,0
	BREQ _0x2020058
	LDI  R18,LOW(0)
	RJMP _0x2020059
_0x2020056:
_0x2020058:
	LDI  R18,LOW(6)
	RJMP _0x2020047
_0x2020059:
	LDI  R16,LOW(0)
	CLT
	BLD  R2,0
	RJMP _0x202005A
_0x2020055:
	CPI  R30,LOW(0xB8)
	BRNE _0x202005B
_0x202005A:
	SBRS R2,0
	RJMP _0x202005C
	LDI  R18,LOW(1)
	RJMP _0x2020047
_0x202005C:
	MOV  R30,R16
	SUBI R16,-1
	LDS  R26,_twi_tx_buffer_G101
	LDS  R27,_twi_tx_buffer_G101+1
	LDI  R31,0
	ADD  R26,R30
	ADC  R27,R31
	LD   R30,X
	OUT  0x3,R30
	CP   R16,R19
	BRSH _0x202005D
	IN   R30,0x36
	ANDI R30,LOW(0xF)
	ORI  R30,LOW(0xC0)
	RJMP _0x202006C
_0x202005D:
	SET
	BLD  R2,0
	IN   R30,0x36
	ANDI R30,LOW(0xF)
	ORI  R30,0x80
_0x202006C:
	OUT  0x36,R30
	RJMP _0x2020016
_0x202005B:
	CPI  R30,LOW(0xC0)
	BREQ _0x2020060
	CPI  R30,LOW(0xC8)
	BRNE _0x2020061
_0x2020060:
	IN   R30,0x36
	ANDI R30,LOW(0xF)
	ORI  R30,LOW(0xC0)
	OUT  0x36,R30
	LDS  R30,_twi_slave_tx_handler_G101
	LDS  R31,_twi_slave_tx_handler_G101+1
	SBIW R30,0
	BREQ _0x2020062
	LDI  R26,LOW(1)
	__CALL1MN _twi_slave_tx_handler_G101,0
_0x2020062:
	RJMP _0x2020035
_0x2020061:
	CPI  R30,0
	BRNE _0x2020016
	LDI  R18,LOW(3)
_0x2020047:
_0x2020069:
	IN   R30,0x36
	ANDI R30,LOW(0xF)
	ORI  R30,LOW(0xD0)
_0x202006A:
	OUT  0x36,R30
_0x2020035:
	SET
	BLD  R2,1
_0x2020016:
	STS  _twi_rx_index,R17
	STS  _twi_tx_index,R16
	STS  _twi_result,R18
	STS  _bytes_to_tx_G101,R19
	RCALL __LOADLOCR6
	ADIW R28,6
	LD   R30,Y+
	OUT  SREG,R30
	LD   R31,Y+
	LD   R30,Y+
	LD   R27,Y+
	LD   R26,Y+
	LD   R25,Y+
	LD   R24,Y+
	LD   R23,Y+
	LD   R22,Y+
	LD   R15,Y+
	LD   R1,Y+
	LD   R0,Y+
	RETI
; .FEND
	#ifndef __SLEEP_DEFINED__
	#define __SLEEP_DEFINED__
	.EQU __se_bit=0x80
	.EQU __sm_mask=0x70
	.EQU __sm_powerdown=0x20
	.EQU __sm_powersave=0x30
	.EQU __sm_standby=0x60
	.EQU __sm_ext_standby=0x70
	.EQU __sm_adc_noise_red=0x10
	.SET power_ctrl_reg=mcucr
	#endif

	.DSEG

	.CSEG
__lcd_write_nibble_G102:
; .FSTART __lcd_write_nibble_G102
	ST   -Y,R26
	LD   R30,Y
	ANDI R30,LOW(0x10)
	BREQ _0x2040004
	SBI  0x12,3
	RJMP _0x2040005
_0x2040004:
	CBI  0x12,3
_0x2040005:
	LD   R30,Y
	ANDI R30,LOW(0x20)
	BREQ _0x2040006
	SBI  0x12,4
	RJMP _0x2040007
_0x2040006:
	CBI  0x12,4
_0x2040007:
	LD   R30,Y
	ANDI R30,LOW(0x40)
	BREQ _0x2040008
	SBI  0x12,5
	RJMP _0x2040009
_0x2040008:
	CBI  0x12,5
_0x2040009:
	LD   R30,Y
	ANDI R30,LOW(0x80)
	BREQ _0x204000A
	SBI  0x12,6
	RJMP _0x204000B
_0x204000A:
	CBI  0x12,6
_0x204000B:
	RCALL SUBOPT_0x7
	SBI  0x12,2
	RCALL SUBOPT_0x7
	CBI  0x12,2
	RCALL SUBOPT_0x7
	RJMP _0x20C0001
; .FEND
__lcd_write_data:
; .FSTART __lcd_write_data
	ST   -Y,R26
	LD   R26,Y
	RCALL __lcd_write_nibble_G102
    ld    r30,y
    swap  r30
    st    y,r30
	LD   R26,Y
	RCALL __lcd_write_nibble_G102
	__DELAY_USB 133
	RJMP _0x20C0001
; .FEND
_lcd_gotoxy:
; .FSTART _lcd_gotoxy
	ST   -Y,R26
	LD   R30,Y
	LDI  R31,0
	SUBI R30,LOW(-__base_y_G102)
	SBCI R31,HIGH(-__base_y_G102)
	LD   R30,Z
	LDD  R26,Y+1
	ADD  R26,R30
	RCALL __lcd_write_data
	LDD  R12,Y+1
	LD   R30,Y
	STS  __lcd_y,R30
_0x20C0004:
	ADIW R28,2
	RET
; .FEND
_lcd_clear:
; .FSTART _lcd_clear
	LDI  R26,LOW(2)
	RCALL SUBOPT_0x8
	LDI  R26,LOW(12)
	RCALL __lcd_write_data
	LDI  R26,LOW(1)
	RCALL SUBOPT_0x8
	LDI  R30,LOW(0)
	STS  __lcd_y,R30
	MOV  R12,R30
	RET
; .FEND
_lcd_putchar:
; .FSTART _lcd_putchar
	ST   -Y,R26
	LD   R26,Y
	CPI  R26,LOW(0xA)
	BREQ _0x2040011
	LDS  R30,__lcd_maxx
	CP   R12,R30
	BRLO _0x2040010
_0x2040011:
	LDI  R30,LOW(0)
	ST   -Y,R30
	LDS  R26,__lcd_y
	SUBI R26,-LOW(1)
	STS  __lcd_y,R26
	RCALL _lcd_gotoxy
	LD   R26,Y
	CPI  R26,LOW(0xA)
	BRNE _0x2040013
	RJMP _0x20C0001
_0x2040013:
_0x2040010:
	INC  R12
	SBI  0x12,0
	LD   R26,Y
	RCALL __lcd_write_data
	CBI  0x12,0
	RJMP _0x20C0001
; .FEND
_lcd_puts:
; .FSTART _lcd_puts
	RCALL SUBOPT_0x1
	ST   -Y,R17
_0x2040014:
	LDD  R26,Y+1
	LDD  R27,Y+1+1
	LD   R30,X+
	STD  Y+1,R26
	STD  Y+1+1,R27
	MOV  R17,R30
	CPI  R30,0
	BREQ _0x2040016
	MOV  R26,R17
	RCALL _lcd_putchar
	RJMP _0x2040014
_0x2040016:
	RJMP _0x20C0002
; .FEND
_lcd_putsf:
; .FSTART _lcd_putsf
	RCALL SUBOPT_0x1
	ST   -Y,R17
_0x2040017:
	LDD  R30,Y+1
	LDD  R31,Y+1+1
	ADIW R30,1
	STD  Y+1,R30
	STD  Y+1+1,R31
	SBIW R30,1
	LPM  R30,Z
	MOV  R17,R30
	CPI  R30,0
	BREQ _0x2040019
	MOV  R26,R17
	RCALL _lcd_putchar
	RJMP _0x2040017
_0x2040019:
_0x20C0002:
	LDD  R17,Y+0
_0x20C0003:
	ADIW R28,3
	RET
; .FEND
_lcd_init:
; .FSTART _lcd_init
	ST   -Y,R26
	SBI  0x11,3
	SBI  0x11,4
	SBI  0x11,5
	SBI  0x11,6
	SBI  0x11,2
	SBI  0x11,0
	SBI  0x11,1
	CBI  0x12,2
	CBI  0x12,0
	CBI  0x12,1
	LD   R30,Y
	STS  __lcd_maxx,R30
	SUBI R30,-LOW(128)
	__PUTB1MN __base_y_G102,2
	LD   R30,Y
	SUBI R30,-LOW(192)
	__PUTB1MN __base_y_G102,3
	LDI  R26,LOW(20)
	LDI  R27,0
	RCALL _delay_ms
	RCALL SUBOPT_0x9
	RCALL SUBOPT_0x9
	RCALL SUBOPT_0x9
	LDI  R26,LOW(32)
	RCALL __lcd_write_nibble_G102
	__DELAY_USW 200
	LDI  R26,LOW(40)
	RCALL __lcd_write_data
	LDI  R26,LOW(4)
	RCALL __lcd_write_data
	LDI  R26,LOW(133)
	RCALL __lcd_write_data
	LDI  R26,LOW(6)
	RCALL __lcd_write_data
	RCALL _lcd_clear
_0x20C0001:
	ADIW R28,1
	RET
; .FEND

	.CSEG

	.CSEG

	.CSEG

	.DSEG
_twi_tx_index:
	.BYTE 0x1
_twi_rx_index:
	.BYTE 0x1
_twi_result:
	.BYTE 0x1
_Duty:
	.BYTE 0x1
_twi_eeprom:
	.BYTE 0x3
__seed_G100:
	.BYTE 0x4
_slave_address_G101:
	.BYTE 0x1
_twi_tx_buffer_G101:
	.BYTE 0x2
_bytes_to_tx_G101:
	.BYTE 0x1
_twi_rx_buffer_G101:
	.BYTE 0x2
_bytes_to_rx_G101:
	.BYTE 0x1
_twi_rx_buffer_size_G101:
	.BYTE 0x1
_twi_slave_rx_handler_G101:
	.BYTE 0x2
_twi_slave_tx_handler_G101:
	.BYTE 0x2
__base_y_G102:
	.BYTE 0x4
__lcd_y:
	.BYTE 0x1
__lcd_maxx:
	.BYTE 0x1

	.CSEG
;OPTIMIZER ADDED SUBROUTINE, CALLED 2 TIMES, CODE SIZE REDUCTION:7 WORDS
SUBOPT_0x0:
	MOV  R30,R10
	LDI  R31,0
	ST   -Y,R31
	ST   -Y,R30
	LDI  R26,LOW(_Duty)
	LDI  R27,HIGH(_Duty)
	RCALL _itoa
	LDI  R26,LOW(_Duty)
	LDI  R27,HIGH(_Duty)
	RJMP _lcd_puts

;OPTIMIZER ADDED SUBROUTINE, CALLED 5 TIMES, CODE SIZE REDUCTION:2 WORDS
SUBOPT_0x1:
	ST   -Y,R27
	ST   -Y,R26
	RET

;OPTIMIZER ADDED SUBROUTINE, CALLED 2 TIMES, CODE SIZE REDUCTION:3 WORDS
SUBOPT_0x2:
	LDI  R30,LOW(80)
	ST   -Y,R30
	LDI  R30,LOW(_twi_eeprom)
	LDI  R31,HIGH(_twi_eeprom)
	ST   -Y,R31
	ST   -Y,R30
	RET

;OPTIMIZER ADDED SUBROUTINE, CALLED 4 TIMES, CODE SIZE REDUCTION:1 WORDS
SUBOPT_0x3:
	ST   -Y,R31
	ST   -Y,R30
	RET

;OPTIMIZER ADDED SUBROUTINE, CALLED 3 TIMES, CODE SIZE REDUCTION:2 WORDS
SUBOPT_0x4:
	LDI  R26,LOW(10)
	LDI  R27,0
	RJMP _delay_ms

;OPTIMIZER ADDED SUBROUTINE, CALLED 2 TIMES, CODE SIZE REDUCTION:2 WORDS
SUBOPT_0x5:
	RCALL _lcd_clear
	LDI  R30,LOW(0)
	ST   -Y,R30
	LDI  R26,LOW(1)
	RJMP _lcd_gotoxy

;OPTIMIZER ADDED SUBROUTINE, CALLED 2 TIMES, CODE SIZE REDUCTION:1 WORDS
SUBOPT_0x6:
	RCALL __PUTD1S0
	RET

;OPTIMIZER ADDED SUBROUTINE, CALLED 3 TIMES, CODE SIZE REDUCTION:2 WORDS
SUBOPT_0x7:
	__DELAY_USB 13
	RET

;OPTIMIZER ADDED SUBROUTINE, CALLED 2 TIMES, CODE SIZE REDUCTION:1 WORDS
SUBOPT_0x8:
	RCALL __lcd_write_data
	LDI  R26,LOW(3)
	LDI  R27,0
	RJMP _delay_ms

;OPTIMIZER ADDED SUBROUTINE, CALLED 3 TIMES, CODE SIZE REDUCTION:8 WORDS
SUBOPT_0x9:
	LDI  R26,LOW(48)
	RCALL __lcd_write_nibble_G102
	__DELAY_USW 200
	RET


	.CSEG
_delay_ms:
	adiw r26,0
	breq __delay_ms1
__delay_ms0:
	__DELAY_USW 0x7D0
	wdr
	sbiw r26,1
	brne __delay_ms0
__delay_ms1:
	ret

__ASRW8:
	MOV  R30,R31
	CLR  R31
	SBRC R30,7
	SER  R31
	RET

__EQB12:
	CP   R30,R26
	LDI  R30,1
	BREQ __EQB12T
	CLR  R30
__EQB12T:
	RET

__DIVW21U:
	CLR  R0
	CLR  R1
	LDI  R25,16
__DIVW21U1:
	LSL  R26
	ROL  R27
	ROL  R0
	ROL  R1
	SUB  R0,R30
	SBC  R1,R31
	BRCC __DIVW21U2
	ADD  R0,R30
	ADC  R1,R31
	RJMP __DIVW21U3
__DIVW21U2:
	SBR  R26,1
__DIVW21U3:
	DEC  R25
	BRNE __DIVW21U1
	MOVW R30,R26
	MOVW R26,R0
	RET

__GETD1S0:
	LD   R30,Y
	LDD  R31,Y+1
	LDD  R22,Y+2
	LDD  R23,Y+3
	RET

__PUTD1S0:
	ST   Y,R30
	STD  Y+1,R31
	STD  Y+2,R22
	STD  Y+3,R23
	RET

__SAVELOCR6:
	ST   -Y,R21
__SAVELOCR5:
	ST   -Y,R20
__SAVELOCR4:
	ST   -Y,R19
__SAVELOCR3:
	ST   -Y,R18
__SAVELOCR2:
	ST   -Y,R17
	ST   -Y,R16
	RET

__LOADLOCR6:
	LDD  R21,Y+5
__LOADLOCR5:
	LDD  R20,Y+4
__LOADLOCR4:
	LDD  R19,Y+3
__LOADLOCR3:
	LDD  R18,Y+2
__LOADLOCR2:
	LDD  R17,Y+1
	LD   R16,Y
	RET

;END OF CODE MARKER
__END_OF_CODE:
