
;CodeVisionAVR C Compiler V3.12 Advanced
;(C) Copyright 1998-2014 Pavel Haiduc, HP InfoTech s.r.l.
;http://www.hpinfotech.com

;Build configuration    : Debug
;Chip type              : ATmega8A
;Program type           : Application
;Clock frequency        : 8,000000 MHz
;Memory model           : Small
;Optimize for           : Size
;(s)printf features     : int, width
;(s)scanf features      : int, width
;External RAM size      : 0
;Data Stack size        : 256 byte(s)
;Heap size              : 0 byte(s)
;Promote 'char' to 'int': Yes
;'char' is unsigned     : Yes
;8 bit enums            : Yes
;Global 'const' stored in FLASH: Yes
;Enhanced function parameter passing: Yes
;Enhanced core instructions: On
;Automatic register allocation for global variables: On
;Smart register allocation: On

	#define _MODEL_SMALL_

	#pragma AVRPART ADMIN PART_NAME ATmega8A
	#pragma AVRPART MEMORY PROG_FLASH 8192
	#pragma AVRPART MEMORY EEPROM 512
	#pragma AVRPART MEMORY INT_SRAM SIZE 1024
	#pragma AVRPART MEMORY INT_SRAM START_ADDR 0x60

	.LISTMAC
	.EQU UDRE=0x5
	.EQU RXC=0x7
	.EQU USR=0xB
	.EQU UDR=0xC
	.EQU SPSR=0xE
	.EQU SPDR=0xF
	.EQU EERE=0x0
	.EQU EEWE=0x1
	.EQU EEMWE=0x2
	.EQU EECR=0x1C
	.EQU EEDR=0x1D
	.EQU EEARL=0x1E
	.EQU EEARH=0x1F
	.EQU WDTCR=0x21
	.EQU MCUCR=0x35
	.EQU GICR=0x3B
	.EQU SPL=0x3D
	.EQU SPH=0x3E
	.EQU SREG=0x3F

	.DEF R0X0=R0
	.DEF R0X1=R1
	.DEF R0X2=R2
	.DEF R0X3=R3
	.DEF R0X4=R4
	.DEF R0X5=R5
	.DEF R0X6=R6
	.DEF R0X7=R7
	.DEF R0X8=R8
	.DEF R0X9=R9
	.DEF R0XA=R10
	.DEF R0XB=R11
	.DEF R0XC=R12
	.DEF R0XD=R13
	.DEF R0XE=R14
	.DEF R0XF=R15
	.DEF R0X10=R16
	.DEF R0X11=R17
	.DEF R0X12=R18
	.DEF R0X13=R19
	.DEF R0X14=R20
	.DEF R0X15=R21
	.DEF R0X16=R22
	.DEF R0X17=R23
	.DEF R0X18=R24
	.DEF R0X19=R25
	.DEF R0X1A=R26
	.DEF R0X1B=R27
	.DEF R0X1C=R28
	.DEF R0X1D=R29
	.DEF R0X1E=R30
	.DEF R0X1F=R31

	.EQU __SRAM_START=0x0060
	.EQU __SRAM_END=0x045F
	.EQU __DSTACK_SIZE=0x0100
	.EQU __HEAP_SIZE=0x0000
	.EQU __CLEAR_SRAM_SIZE=__SRAM_END-__SRAM_START+1

	.MACRO __CPD1N
	CPI  R30,LOW(@0)
	LDI  R26,HIGH(@0)
	CPC  R31,R26
	LDI  R26,BYTE3(@0)
	CPC  R22,R26
	LDI  R26,BYTE4(@0)
	CPC  R23,R26
	.ENDM

	.MACRO __CPD2N
	CPI  R26,LOW(@0)
	LDI  R30,HIGH(@0)
	CPC  R27,R30
	LDI  R30,BYTE3(@0)
	CPC  R24,R30
	LDI  R30,BYTE4(@0)
	CPC  R25,R30
	.ENDM

	.MACRO __CPWRR
	CP   R@0,R@2
	CPC  R@1,R@3
	.ENDM

	.MACRO __CPWRN
	CPI  R@0,LOW(@2)
	LDI  R30,HIGH(@2)
	CPC  R@1,R30
	.ENDM

	.MACRO __ADDB1MN
	SUBI R30,LOW(-@0-(@1))
	.ENDM

	.MACRO __ADDB2MN
	SUBI R26,LOW(-@0-(@1))
	.ENDM

	.MACRO __ADDW1MN
	SUBI R30,LOW(-@0-(@1))
	SBCI R31,HIGH(-@0-(@1))
	.ENDM

	.MACRO __ADDW2MN
	SUBI R26,LOW(-@0-(@1))
	SBCI R27,HIGH(-@0-(@1))
	.ENDM

	.MACRO __ADDW1FN
	SUBI R30,LOW(-2*@0-(@1))
	SBCI R31,HIGH(-2*@0-(@1))
	.ENDM

	.MACRO __ADDD1FN
	SUBI R30,LOW(-2*@0-(@1))
	SBCI R31,HIGH(-2*@0-(@1))
	SBCI R22,BYTE3(-2*@0-(@1))
	.ENDM

	.MACRO __ADDD1N
	SUBI R30,LOW(-@0)
	SBCI R31,HIGH(-@0)
	SBCI R22,BYTE3(-@0)
	SBCI R23,BYTE4(-@0)
	.ENDM

	.MACRO __ADDD2N
	SUBI R26,LOW(-@0)
	SBCI R27,HIGH(-@0)
	SBCI R24,BYTE3(-@0)
	SBCI R25,BYTE4(-@0)
	.ENDM

	.MACRO __SUBD1N
	SUBI R30,LOW(@0)
	SBCI R31,HIGH(@0)
	SBCI R22,BYTE3(@0)
	SBCI R23,BYTE4(@0)
	.ENDM

	.MACRO __SUBD2N
	SUBI R26,LOW(@0)
	SBCI R27,HIGH(@0)
	SBCI R24,BYTE3(@0)
	SBCI R25,BYTE4(@0)
	.ENDM

	.MACRO __ANDBMNN
	LDS  R30,@0+(@1)
	ANDI R30,LOW(@2)
	STS  @0+(@1),R30
	.ENDM

	.MACRO __ANDWMNN
	LDS  R30,@0+(@1)
	ANDI R30,LOW(@2)
	STS  @0+(@1),R30
	LDS  R30,@0+(@1)+1
	ANDI R30,HIGH(@2)
	STS  @0+(@1)+1,R30
	.ENDM

	.MACRO __ANDD1N
	ANDI R30,LOW(@0)
	ANDI R31,HIGH(@0)
	ANDI R22,BYTE3(@0)
	ANDI R23,BYTE4(@0)
	.ENDM

	.MACRO __ANDD2N
	ANDI R26,LOW(@0)
	ANDI R27,HIGH(@0)
	ANDI R24,BYTE3(@0)
	ANDI R25,BYTE4(@0)
	.ENDM

	.MACRO __ORBMNN
	LDS  R30,@0+(@1)
	ORI  R30,LOW(@2)
	STS  @0+(@1),R30
	.ENDM

	.MACRO __ORWMNN
	LDS  R30,@0+(@1)
	ORI  R30,LOW(@2)
	STS  @0+(@1),R30
	LDS  R30,@0+(@1)+1
	ORI  R30,HIGH(@2)
	STS  @0+(@1)+1,R30
	.ENDM

	.MACRO __ORD1N
	ORI  R30,LOW(@0)
	ORI  R31,HIGH(@0)
	ORI  R22,BYTE3(@0)
	ORI  R23,BYTE4(@0)
	.ENDM

	.MACRO __ORD2N
	ORI  R26,LOW(@0)
	ORI  R27,HIGH(@0)
	ORI  R24,BYTE3(@0)
	ORI  R25,BYTE4(@0)
	.ENDM

	.MACRO __DELAY_USB
	LDI  R24,LOW(@0)
__DELAY_USB_LOOP:
	DEC  R24
	BRNE __DELAY_USB_LOOP
	.ENDM

	.MACRO __DELAY_USW
	LDI  R24,LOW(@0)
	LDI  R25,HIGH(@0)
__DELAY_USW_LOOP:
	SBIW R24,1
	BRNE __DELAY_USW_LOOP
	.ENDM

	.MACRO __GETD1S
	LDD  R30,Y+@0
	LDD  R31,Y+@0+1
	LDD  R22,Y+@0+2
	LDD  R23,Y+@0+3
	.ENDM

	.MACRO __GETD2S
	LDD  R26,Y+@0
	LDD  R27,Y+@0+1
	LDD  R24,Y+@0+2
	LDD  R25,Y+@0+3
	.ENDM

	.MACRO __PUTD1S
	STD  Y+@0,R30
	STD  Y+@0+1,R31
	STD  Y+@0+2,R22
	STD  Y+@0+3,R23
	.ENDM

	.MACRO __PUTD2S
	STD  Y+@0,R26
	STD  Y+@0+1,R27
	STD  Y+@0+2,R24
	STD  Y+@0+3,R25
	.ENDM

	.MACRO __PUTDZ2
	STD  Z+@0,R26
	STD  Z+@0+1,R27
	STD  Z+@0+2,R24
	STD  Z+@0+3,R25
	.ENDM

	.MACRO __CLRD1S
	STD  Y+@0,R30
	STD  Y+@0+1,R30
	STD  Y+@0+2,R30
	STD  Y+@0+3,R30
	.ENDM

	.MACRO __POINTB1MN
	LDI  R30,LOW(@0+(@1))
	.ENDM

	.MACRO __POINTW1MN
	LDI  R30,LOW(@0+(@1))
	LDI  R31,HIGH(@0+(@1))
	.ENDM

	.MACRO __POINTD1M
	LDI  R30,LOW(@0)
	LDI  R31,HIGH(@0)
	LDI  R22,BYTE3(@0)
	LDI  R23,BYTE4(@0)
	.ENDM

	.MACRO __POINTW1FN
	LDI  R30,LOW(2*@0+(@1))
	LDI  R31,HIGH(2*@0+(@1))
	.ENDM

	.MACRO __POINTD1FN
	LDI  R30,LOW(2*@0+(@1))
	LDI  R31,HIGH(2*@0+(@1))
	LDI  R22,BYTE3(2*@0+(@1))
	LDI  R23,BYTE4(2*@0+(@1))
	.ENDM

	.MACRO __POINTB2MN
	LDI  R26,LOW(@0+(@1))
	.ENDM

	.MACRO __POINTW2MN
	LDI  R26,LOW(@0+(@1))
	LDI  R27,HIGH(@0+(@1))
	.ENDM

	.MACRO __POINTW2FN
	LDI  R26,LOW(2*@0+(@1))
	LDI  R27,HIGH(2*@0+(@1))
	.ENDM

	.MACRO __POINTD2FN
	LDI  R26,LOW(2*@0+(@1))
	LDI  R27,HIGH(2*@0+(@1))
	LDI  R24,BYTE3(2*@0+(@1))
	LDI  R25,BYTE4(2*@0+(@1))
	.ENDM

	.MACRO __POINTBRM
	LDI  R@0,LOW(@1)
	.ENDM

	.MACRO __POINTWRM
	LDI  R@0,LOW(@2)
	LDI  R@1,HIGH(@2)
	.ENDM

	.MACRO __POINTBRMN
	LDI  R@0,LOW(@1+(@2))
	.ENDM

	.MACRO __POINTWRMN
	LDI  R@0,LOW(@2+(@3))
	LDI  R@1,HIGH(@2+(@3))
	.ENDM

	.MACRO __POINTWRFN
	LDI  R@0,LOW(@2*2+(@3))
	LDI  R@1,HIGH(@2*2+(@3))
	.ENDM

	.MACRO __GETD1N
	LDI  R30,LOW(@0)
	LDI  R31,HIGH(@0)
	LDI  R22,BYTE3(@0)
	LDI  R23,BYTE4(@0)
	.ENDM

	.MACRO __GETD2N
	LDI  R26,LOW(@0)
	LDI  R27,HIGH(@0)
	LDI  R24,BYTE3(@0)
	LDI  R25,BYTE4(@0)
	.ENDM

	.MACRO __GETB1MN
	LDS  R30,@0+(@1)
	.ENDM

	.MACRO __GETB1HMN
	LDS  R31,@0+(@1)
	.ENDM

	.MACRO __GETW1MN
	LDS  R30,@0+(@1)
	LDS  R31,@0+(@1)+1
	.ENDM

	.MACRO __GETD1MN
	LDS  R30,@0+(@1)
	LDS  R31,@0+(@1)+1
	LDS  R22,@0+(@1)+2
	LDS  R23,@0+(@1)+3
	.ENDM

	.MACRO __GETBRMN
	LDS  R@0,@1+(@2)
	.ENDM

	.MACRO __GETWRMN
	LDS  R@0,@2+(@3)
	LDS  R@1,@2+(@3)+1
	.ENDM

	.MACRO __GETWRZ
	LDD  R@0,Z+@2
	LDD  R@1,Z+@2+1
	.ENDM

	.MACRO __GETD2Z
	LDD  R26,Z+@0
	LDD  R27,Z+@0+1
	LDD  R24,Z+@0+2
	LDD  R25,Z+@0+3
	.ENDM

	.MACRO __GETB2MN
	LDS  R26,@0+(@1)
	.ENDM

	.MACRO __GETW2MN
	LDS  R26,@0+(@1)
	LDS  R27,@0+(@1)+1
	.ENDM

	.MACRO __GETD2MN
	LDS  R26,@0+(@1)
	LDS  R27,@0+(@1)+1
	LDS  R24,@0+(@1)+2
	LDS  R25,@0+(@1)+3
	.ENDM

	.MACRO __PUTB1MN
	STS  @0+(@1),R30
	.ENDM

	.MACRO __PUTW1MN
	STS  @0+(@1),R30
	STS  @0+(@1)+1,R31
	.ENDM

	.MACRO __PUTD1MN
	STS  @0+(@1),R30
	STS  @0+(@1)+1,R31
	STS  @0+(@1)+2,R22
	STS  @0+(@1)+3,R23
	.ENDM

	.MACRO __PUTB1EN
	LDI  R26,LOW(@0+(@1))
	LDI  R27,HIGH(@0+(@1))
	RCALL __EEPROMWRB
	.ENDM

	.MACRO __PUTW1EN
	LDI  R26,LOW(@0+(@1))
	LDI  R27,HIGH(@0+(@1))
	RCALL __EEPROMWRW
	.ENDM

	.MACRO __PUTD1EN
	LDI  R26,LOW(@0+(@1))
	LDI  R27,HIGH(@0+(@1))
	RCALL __EEPROMWRD
	.ENDM

	.MACRO __PUTBR0MN
	STS  @0+(@1),R0
	.ENDM

	.MACRO __PUTBMRN
	STS  @0+(@1),R@2
	.ENDM

	.MACRO __PUTWMRN
	STS  @0+(@1),R@2
	STS  @0+(@1)+1,R@3
	.ENDM

	.MACRO __PUTBZR
	STD  Z+@1,R@0
	.ENDM

	.MACRO __PUTWZR
	STD  Z+@2,R@0
	STD  Z+@2+1,R@1
	.ENDM

	.MACRO __GETW1R
	MOV  R30,R@0
	MOV  R31,R@1
	.ENDM

	.MACRO __GETW2R
	MOV  R26,R@0
	MOV  R27,R@1
	.ENDM

	.MACRO __GETWRN
	LDI  R@0,LOW(@2)
	LDI  R@1,HIGH(@2)
	.ENDM

	.MACRO __PUTW1R
	MOV  R@0,R30
	MOV  R@1,R31
	.ENDM

	.MACRO __PUTW2R
	MOV  R@0,R26
	MOV  R@1,R27
	.ENDM

	.MACRO __ADDWRN
	SUBI R@0,LOW(-@2)
	SBCI R@1,HIGH(-@2)
	.ENDM

	.MACRO __ADDWRR
	ADD  R@0,R@2
	ADC  R@1,R@3
	.ENDM

	.MACRO __SUBWRN
	SUBI R@0,LOW(@2)
	SBCI R@1,HIGH(@2)
	.ENDM

	.MACRO __SUBWRR
	SUB  R@0,R@2
	SBC  R@1,R@3
	.ENDM

	.MACRO __ANDWRN
	ANDI R@0,LOW(@2)
	ANDI R@1,HIGH(@2)
	.ENDM

	.MACRO __ANDWRR
	AND  R@0,R@2
	AND  R@1,R@3
	.ENDM

	.MACRO __ORWRN
	ORI  R@0,LOW(@2)
	ORI  R@1,HIGH(@2)
	.ENDM

	.MACRO __ORWRR
	OR   R@0,R@2
	OR   R@1,R@3
	.ENDM

	.MACRO __EORWRR
	EOR  R@0,R@2
	EOR  R@1,R@3
	.ENDM

	.MACRO __GETWRS
	LDD  R@0,Y+@2
	LDD  R@1,Y+@2+1
	.ENDM

	.MACRO __PUTBSR
	STD  Y+@1,R@0
	.ENDM

	.MACRO __PUTWSR
	STD  Y+@2,R@0
	STD  Y+@2+1,R@1
	.ENDM

	.MACRO __MOVEWRR
	MOV  R@0,R@2
	MOV  R@1,R@3
	.ENDM

	.MACRO __INWR
	IN   R@0,@2
	IN   R@1,@2+1
	.ENDM

	.MACRO __OUTWR
	OUT  @2+1,R@1
	OUT  @2,R@0
	.ENDM

	.MACRO __CALL1MN
	LDS  R30,@0+(@1)
	LDS  R31,@0+(@1)+1
	ICALL
	.ENDM

	.MACRO __CALL1FN
	LDI  R30,LOW(2*@0+(@1))
	LDI  R31,HIGH(2*@0+(@1))
	RCALL __GETW1PF
	ICALL
	.ENDM

	.MACRO __CALL2EN
	PUSH R26
	PUSH R27
	LDI  R26,LOW(@0+(@1))
	LDI  R27,HIGH(@0+(@1))
	RCALL __EEPROMRDW
	POP  R27
	POP  R26
	ICALL
	.ENDM

	.MACRO __CALL2EX
	SUBI R26,LOW(-@0)
	SBCI R27,HIGH(-@0)
	RCALL __EEPROMRDD
	ICALL
	.ENDM

	.MACRO __GETW1STACK
	IN   R30,SPL
	IN   R31,SPH
	ADIW R30,@0+1
	LD   R0,Z+
	LD   R31,Z
	MOV  R30,R0
	.ENDM

	.MACRO __GETD1STACK
	IN   R30,SPL
	IN   R31,SPH
	ADIW R30,@0+1
	LD   R0,Z+
	LD   R1,Z+
	LD   R22,Z
	MOVW R30,R0
	.ENDM

	.MACRO __NBST
	BST  R@0,@1
	IN   R30,SREG
	LDI  R31,0x40
	EOR  R30,R31
	OUT  SREG,R30
	.ENDM


	.MACRO __PUTB1SN
	LDD  R26,Y+@0
	LDD  R27,Y+@0+1
	SUBI R26,LOW(-@1)
	SBCI R27,HIGH(-@1)
	ST   X,R30
	.ENDM

	.MACRO __PUTW1SN
	LDD  R26,Y+@0
	LDD  R27,Y+@0+1
	SUBI R26,LOW(-@1)
	SBCI R27,HIGH(-@1)
	ST   X+,R30
	ST   X,R31
	.ENDM

	.MACRO __PUTD1SN
	LDD  R26,Y+@0
	LDD  R27,Y+@0+1
	SUBI R26,LOW(-@1)
	SBCI R27,HIGH(-@1)
	RCALL __PUTDP1
	.ENDM

	.MACRO __PUTB1SNS
	LDD  R26,Y+@0
	LDD  R27,Y+@0+1
	ADIW R26,@1
	ST   X,R30
	.ENDM

	.MACRO __PUTW1SNS
	LDD  R26,Y+@0
	LDD  R27,Y+@0+1
	ADIW R26,@1
	ST   X+,R30
	ST   X,R31
	.ENDM

	.MACRO __PUTD1SNS
	LDD  R26,Y+@0
	LDD  R27,Y+@0+1
	ADIW R26,@1
	RCALL __PUTDP1
	.ENDM

	.MACRO __PUTB1PMN
	LDS  R26,@0
	LDS  R27,@0+1
	SUBI R26,LOW(-@1)
	SBCI R27,HIGH(-@1)
	ST   X,R30
	.ENDM

	.MACRO __PUTW1PMN
	LDS  R26,@0
	LDS  R27,@0+1
	SUBI R26,LOW(-@1)
	SBCI R27,HIGH(-@1)
	ST   X+,R30
	ST   X,R31
	.ENDM

	.MACRO __PUTD1PMN
	LDS  R26,@0
	LDS  R27,@0+1
	SUBI R26,LOW(-@1)
	SBCI R27,HIGH(-@1)
	RCALL __PUTDP1
	.ENDM

	.MACRO __PUTB1PMNS
	LDS  R26,@0
	LDS  R27,@0+1
	ADIW R26,@1
	ST   X,R30
	.ENDM

	.MACRO __PUTW1PMNS
	LDS  R26,@0
	LDS  R27,@0+1
	ADIW R26,@1
	ST   X+,R30
	ST   X,R31
	.ENDM

	.MACRO __PUTD1PMNS
	LDS  R26,@0
	LDS  R27,@0+1
	ADIW R26,@1
	RCALL __PUTDP1
	.ENDM

	.MACRO __PUTB1RN
	MOVW R26,R@0
	SUBI R26,LOW(-@1)
	SBCI R27,HIGH(-@1)
	ST   X,R30
	.ENDM

	.MACRO __PUTW1RN
	MOVW R26,R@0
	SUBI R26,LOW(-@1)
	SBCI R27,HIGH(-@1)
	ST   X+,R30
	ST   X,R31
	.ENDM

	.MACRO __PUTD1RN
	MOVW R26,R@0
	SUBI R26,LOW(-@1)
	SBCI R27,HIGH(-@1)
	RCALL __PUTDP1
	.ENDM

	.MACRO __PUTB1RNS
	MOVW R26,R@0
	ADIW R26,@1
	ST   X,R30
	.ENDM

	.MACRO __PUTW1RNS
	MOVW R26,R@0
	ADIW R26,@1
	ST   X+,R30
	ST   X,R31
	.ENDM

	.MACRO __PUTD1RNS
	MOVW R26,R@0
	ADIW R26,@1
	RCALL __PUTDP1
	.ENDM

	.MACRO __PUTB1RON
	MOV  R26,R@0
	MOV  R27,R@1
	SUBI R26,LOW(-@2)
	SBCI R27,HIGH(-@2)
	ST   X,R30
	.ENDM

	.MACRO __PUTW1RON
	MOV  R26,R@0
	MOV  R27,R@1
	SUBI R26,LOW(-@2)
	SBCI R27,HIGH(-@2)
	ST   X+,R30
	ST   X,R31
	.ENDM

	.MACRO __PUTD1RON
	MOV  R26,R@0
	MOV  R27,R@1
	SUBI R26,LOW(-@2)
	SBCI R27,HIGH(-@2)
	RCALL __PUTDP1
	.ENDM

	.MACRO __PUTB1RONS
	MOV  R26,R@0
	MOV  R27,R@1
	ADIW R26,@2
	ST   X,R30
	.ENDM

	.MACRO __PUTW1RONS
	MOV  R26,R@0
	MOV  R27,R@1
	ADIW R26,@2
	ST   X+,R30
	ST   X,R31
	.ENDM

	.MACRO __PUTD1RONS
	MOV  R26,R@0
	MOV  R27,R@1
	ADIW R26,@2
	RCALL __PUTDP1
	.ENDM


	.MACRO __GETB1SX
	MOVW R30,R28
	SUBI R30,LOW(-@0)
	SBCI R31,HIGH(-@0)
	LD   R30,Z
	.ENDM

	.MACRO __GETB1HSX
	MOVW R30,R28
	SUBI R30,LOW(-@0)
	SBCI R31,HIGH(-@0)
	LD   R31,Z
	.ENDM

	.MACRO __GETW1SX
	MOVW R30,R28
	SUBI R30,LOW(-@0)
	SBCI R31,HIGH(-@0)
	LD   R0,Z+
	LD   R31,Z
	MOV  R30,R0
	.ENDM

	.MACRO __GETD1SX
	MOVW R30,R28
	SUBI R30,LOW(-@0)
	SBCI R31,HIGH(-@0)
	LD   R0,Z+
	LD   R1,Z+
	LD   R22,Z+
	LD   R23,Z
	MOVW R30,R0
	.ENDM

	.MACRO __GETB2SX
	MOVW R26,R28
	SUBI R26,LOW(-@0)
	SBCI R27,HIGH(-@0)
	LD   R26,X
	.ENDM

	.MACRO __GETW2SX
	MOVW R26,R28
	SUBI R26,LOW(-@0)
	SBCI R27,HIGH(-@0)
	LD   R0,X+
	LD   R27,X
	MOV  R26,R0
	.ENDM

	.MACRO __GETD2SX
	MOVW R26,R28
	SUBI R26,LOW(-@0)
	SBCI R27,HIGH(-@0)
	LD   R0,X+
	LD   R1,X+
	LD   R24,X+
	LD   R25,X
	MOVW R26,R0
	.ENDM

	.MACRO __GETBRSX
	MOVW R30,R28
	SUBI R30,LOW(-@1)
	SBCI R31,HIGH(-@1)
	LD   R@0,Z
	.ENDM

	.MACRO __GETWRSX
	MOVW R30,R28
	SUBI R30,LOW(-@2)
	SBCI R31,HIGH(-@2)
	LD   R@0,Z+
	LD   R@1,Z
	.ENDM

	.MACRO __GETBRSX2
	MOVW R26,R28
	SUBI R26,LOW(-@1)
	SBCI R27,HIGH(-@1)
	LD   R@0,X
	.ENDM

	.MACRO __GETWRSX2
	MOVW R26,R28
	SUBI R26,LOW(-@2)
	SBCI R27,HIGH(-@2)
	LD   R@0,X+
	LD   R@1,X
	.ENDM

	.MACRO __LSLW8SX
	MOVW R30,R28
	SUBI R30,LOW(-@0)
	SBCI R31,HIGH(-@0)
	LD   R31,Z
	CLR  R30
	.ENDM

	.MACRO __PUTB1SX
	MOVW R26,R28
	SUBI R26,LOW(-@0)
	SBCI R27,HIGH(-@0)
	ST   X,R30
	.ENDM

	.MACRO __PUTW1SX
	MOVW R26,R28
	SUBI R26,LOW(-@0)
	SBCI R27,HIGH(-@0)
	ST   X+,R30
	ST   X,R31
	.ENDM

	.MACRO __PUTD1SX
	MOVW R26,R28
	SUBI R26,LOW(-@0)
	SBCI R27,HIGH(-@0)
	ST   X+,R30
	ST   X+,R31
	ST   X+,R22
	ST   X,R23
	.ENDM

	.MACRO __CLRW1SX
	MOVW R26,R28
	SUBI R26,LOW(-@0)
	SBCI R27,HIGH(-@0)
	ST   X+,R30
	ST   X,R30
	.ENDM

	.MACRO __CLRD1SX
	MOVW R26,R28
	SUBI R26,LOW(-@0)
	SBCI R27,HIGH(-@0)
	ST   X+,R30
	ST   X+,R30
	ST   X+,R30
	ST   X,R30
	.ENDM

	.MACRO __PUTB2SX
	MOVW R30,R28
	SUBI R30,LOW(-@0)
	SBCI R31,HIGH(-@0)
	ST   Z,R26
	.ENDM

	.MACRO __PUTW2SX
	MOVW R30,R28
	SUBI R30,LOW(-@0)
	SBCI R31,HIGH(-@0)
	ST   Z+,R26
	ST   Z,R27
	.ENDM

	.MACRO __PUTD2SX
	MOVW R30,R28
	SUBI R30,LOW(-@0)
	SBCI R31,HIGH(-@0)
	ST   Z+,R26
	ST   Z+,R27
	ST   Z+,R24
	ST   Z,R25
	.ENDM

	.MACRO __PUTBSRX
	MOVW R30,R28
	SUBI R30,LOW(-@1)
	SBCI R31,HIGH(-@1)
	ST   Z,R@0
	.ENDM

	.MACRO __PUTWSRX
	MOVW R30,R28
	SUBI R30,LOW(-@2)
	SBCI R31,HIGH(-@2)
	ST   Z+,R@0
	ST   Z,R@1
	.ENDM

	.MACRO __PUTB1SNX
	MOVW R26,R28
	SUBI R26,LOW(-@0)
	SBCI R27,HIGH(-@0)
	LD   R0,X+
	LD   R27,X
	MOV  R26,R0
	SUBI R26,LOW(-@1)
	SBCI R27,HIGH(-@1)
	ST   X,R30
	.ENDM

	.MACRO __PUTW1SNX
	MOVW R26,R28
	SUBI R26,LOW(-@0)
	SBCI R27,HIGH(-@0)
	LD   R0,X+
	LD   R27,X
	MOV  R26,R0
	SUBI R26,LOW(-@1)
	SBCI R27,HIGH(-@1)
	ST   X+,R30
	ST   X,R31
	.ENDM

	.MACRO __PUTD1SNX
	MOVW R26,R28
	SUBI R26,LOW(-@0)
	SBCI R27,HIGH(-@0)
	LD   R0,X+
	LD   R27,X
	MOV  R26,R0
	SUBI R26,LOW(-@1)
	SBCI R27,HIGH(-@1)
	ST   X+,R30
	ST   X+,R31
	ST   X+,R22
	ST   X,R23
	.ENDM

	.MACRO __MULBRR
	MULS R@0,R@1
	MOVW R30,R0
	.ENDM

	.MACRO __MULBRRU
	MUL  R@0,R@1
	MOVW R30,R0
	.ENDM

	.MACRO __MULBRR0
	MULS R@0,R@1
	.ENDM

	.MACRO __MULBRRU0
	MUL  R@0,R@1
	.ENDM

	.MACRO __MULBNWRU
	LDI  R26,@2
	MUL  R26,R@0
	MOVW R30,R0
	MUL  R26,R@1
	ADD  R31,R0
	.ENDM

;NAME DEFINITIONS FOR GLOBAL VARIABLES ALLOCATED TO REGISTERS
	.DEF _Cmd_SetAddr=R5
	.DEF _Cmd_DispCtrl=R4
	.DEF __PointFlag=R7
	.DEF __DispType=R6
	.DEF _DecPoint=R9
	.DEF _BlankingFlag=R8

	.CSEG
	.ORG 0x00

;START OF CODE MARKER
__START_OF_CODE:

;INTERRUPT VECTORS
	RJMP __RESET
	RJMP 0x00
	RJMP 0x00
	RJMP 0x00
	RJMP 0x00
	RJMP 0x00
	RJMP 0x00
	RJMP 0x00
	RJMP 0x00
	RJMP 0x00
	RJMP 0x00
	RJMP 0x00
	RJMP 0x00
	RJMP 0x00
	RJMP 0x00
	RJMP 0x00
	RJMP 0x00
	RJMP 0x00
	RJMP 0x00

_0x3:
	.DB  0x3F,0x6,0x5B,0x4F,0x66,0x6D,0x7D,0x7
	.DB  0x7F,0x6F,0x77,0x7C,0x39,0x5E,0x79,0x71
	.DB  0x40
_0x40:
	.DB  0x0,0x1,0x2,0x3

__GLOBAL_INI_TBL:
	.DW  0x11
	.DW  _TubeTab_G000
	.DW  _0x3*2

_0xFFFFFFFF:
	.DW  0

#define __GLOBAL_INI_TBL_PRESENT 1

__RESET:
	CLI
	CLR  R30
	OUT  EECR,R30

;INTERRUPT VECTORS ARE PLACED
;AT THE START OF FLASH
	LDI  R31,1
	OUT  GICR,R31
	OUT  GICR,R30
	OUT  MCUCR,R30

;CLEAR R2-R14
	LDI  R24,(14-2)+1
	LDI  R26,2
	CLR  R27
__CLEAR_REG:
	ST   X+,R30
	DEC  R24
	BRNE __CLEAR_REG

;CLEAR SRAM
	LDI  R24,LOW(__CLEAR_SRAM_SIZE)
	LDI  R25,HIGH(__CLEAR_SRAM_SIZE)
	LDI  R26,__SRAM_START
__CLEAR_SRAM:
	ST   X+,R30
	SBIW R24,1
	BRNE __CLEAR_SRAM

;GLOBAL VARIABLES INITIALIZATION
	LDI  R30,LOW(__GLOBAL_INI_TBL*2)
	LDI  R31,HIGH(__GLOBAL_INI_TBL*2)
__GLOBAL_INI_NEXT:
	LPM  R24,Z+
	LPM  R25,Z+
	SBIW R24,0
	BREQ __GLOBAL_INI_END
	LPM  R26,Z+
	LPM  R27,Z+
	LPM  R0,Z+
	LPM  R1,Z+
	MOVW R22,R30
	MOVW R30,R0
__GLOBAL_INI_LOOP:
	LPM  R0,Z+
	ST   X+,R0
	SBIW R24,1
	BRNE __GLOBAL_INI_LOOP
	MOVW R30,R22
	RJMP __GLOBAL_INI_NEXT
__GLOBAL_INI_END:

;HARDWARE STACK POINTER INITIALIZATION
	LDI  R30,LOW(__SRAM_END-__HEAP_SIZE)
	OUT  SPL,R30
	LDI  R30,HIGH(__SRAM_END-__HEAP_SIZE)
	OUT  SPH,R30

;DATA STACK POINTER INITIALIZATION
	LDI  R28,LOW(__SRAM_START+__DSTACK_SIZE)
	LDI  R29,HIGH(__SRAM_START+__DSTACK_SIZE)

	RJMP _main

	.ESEG
	.ORG 0

	.DSEG
	.ORG 0x160

	.CSEG
;/*******************************************************
;This program was created by the
;CodeWizardAVR V3.12 Advanced
;Automatic Program Generator
;© Copyright 1998-2014 Pavel Haiduc, HP InfoTech s.r.l.
;http://www.hpinfotech.com
;
;Project :
;Version :
;Date    : 15.02.2018
;Author  :
;Company :
;Comments:
;
;
;Chip type               : ATmega8A
;Program type            : Application
;AVR Core Clock frequency: 8,000000 MHz
;Memory model            : Small
;External RAM size       : 0
;Data Stack size         : 256
;*******************************************************/
;
;#include <mega8.h>
	#ifndef __SLEEP_DEFINED__
	#define __SLEEP_DEFINED__
	.EQU __se_bit=0x80
	.EQU __sm_mask=0x70
	.EQU __sm_powerdown=0x20
	.EQU __sm_powersave=0x30
	.EQU __sm_standby=0x60
	.EQU __sm_ext_standby=0x70
	.EQU __sm_adc_noise_red=0x10
	.SET power_ctrl_reg=mcucr
	#endif
;#include "TM1637.h"

	.DSEG

	.CSEG
_TM1637_writeByte:
; .FSTART _TM1637_writeByte
	ST   -Y,R26
	ST   -Y,R17
;	wr_data -> Y+1
;	i -> R17
	LDI  R17,LOW(0)
_0x5:
	CPI  R17,8
	BRSH _0x6
	CBI  0x18,0
	LDD  R30,Y+1
	ANDI R30,LOW(0x1)
	BREQ _0x7
	SBI  0x18,1
	RJMP _0x8
_0x7:
	CBI  0x18,1
_0x8:
	__DELAY_USB 8
	LDD  R30,Y+1
	LSR  R30
	STD  Y+1,R30
	SBI  0x18,0
	__DELAY_USB 8
	SUBI R17,-1
	RJMP _0x5
_0x6:
	CBI  0x18,0
	__DELAY_USB 13
	CBI  0x17,1
_0x9:
	SBIC 0x16,1
	RJMP _0x9
	SBI  0x17,1
	RCALL SUBOPT_0x0
	CBI  0x18,0
	RJMP _0x2000004
; .FEND
_TM1637_start:
; .FSTART _TM1637_start
	SBI  0x18,0
	SBI  0x18,1
	RCALL SUBOPT_0x1
	RET
; .FEND
_TM1637_stop:
; .FSTART _TM1637_stop
	CBI  0x18,0
	RCALL SUBOPT_0x1
	__DELAY_USB 5
	RCALL SUBOPT_0x0
	SBI  0x18,1
	RET
; .FEND
_TM1637_coding_all:
; .FSTART _TM1637_coding_all
	ST   -Y,R27
	ST   -Y,R26
	RCALL __SAVELOCR2
;	DispData -> Y+2
;	PointData -> R17
;	i -> R16
	LDI  R30,LOW(1)
	CP   R30,R7
	BRNE _0xC
	LDI  R17,LOW(128)
	RJMP _0xD
_0xC:
	LDI  R17,LOW(0)
_0xD:
	LDI  R16,LOW(0)
_0xF:
	CPI  R16,4
	BRSH _0x10
	RCALL SUBOPT_0x2
	LD   R26,X
	CPI  R26,LOW(0x7F)
	BRNE _0x11
	RCALL SUBOPT_0x2
	RJMP _0x45
_0x11:
	MOV  R30,R16
	LDD  R26,Y+2
	LDD  R27,Y+2+1
	LDI  R31,0
	ADD  R30,R26
	ADC  R31,R27
	MOVW R0,R30
	RCALL SUBOPT_0x2
	LD   R30,X
	RCALL SUBOPT_0x3
	MOVW R26,R0
_0x45:
	ST   X,R30
	RCALL SUBOPT_0x2
	LD   R30,X
	SUBI R30,-LOW(128)
	ST   X,R30
	SUBI R16,-1
	RJMP _0xF
_0x10:
	LDI  R30,LOW(1)
	CP   R30,R6
	BRNE _0x14
	LDI  R30,LOW(3)
	CP   R30,R9
	BRNE _0x15
_0x14:
	RJMP _0x13
_0x15:
	LDD  R26,Y+2
	LDD  R27,Y+2+1
	CLR  R30
	ADD  R26,R9
	ADC  R27,R30
	LD   R30,X
	SUBI R30,-LOW(128)
	ST   X,R30
	LDI  R30,LOW(3)
	MOV  R9,R30
_0x13:
	RCALL __LOADLOCR2
	ADIW R28,4
	RET
; .FEND
_TM1637_coding:
; .FSTART _TM1637_coding
	ST   -Y,R26
	ST   -Y,R17
;	DispData -> Y+1
;	PointData -> R17
	LDI  R30,LOW(1)
	CP   R30,R7
	BRNE _0x16
	LDI  R17,LOW(128)
	RJMP _0x17
_0x16:
	LDI  R17,LOW(0)
_0x17:
	LDD  R26,Y+1
	CPI  R26,LOW(0x7F)
	BRNE _0x18
	MOV  R30,R17
	RJMP _0x46
_0x18:
	LDD  R30,Y+1
	RCALL SUBOPT_0x3
_0x46:
	STD  Y+1,R30
_0x2000004:
	LDD  R17,Y+0
	ADIW R28,2
	RET
; .FEND
_TM1637_display_all:
; .FSTART _TM1637_display_all
	ST   -Y,R27
	ST   -Y,R26
	SBIW R28,4
	ST   -Y,R17
;	DispData -> Y+5
;	SegData -> Y+1
;	i -> R17
	LDI  R17,LOW(0)
_0x1B:
	CPI  R17,4
	BRSH _0x1C
	RCALL SUBOPT_0x4
	ADD  R30,R26
	ADC  R31,R27
	MOVW R0,R30
	LDD  R26,Y+5
	LDD  R27,Y+5+1
	CLR  R30
	ADD  R26,R17
	ADC  R27,R30
	LD   R30,X
	MOVW R26,R0
	ST   X,R30
	SUBI R17,-1
	RJMP _0x1B
_0x1C:
	MOVW R26,R28
	ADIW R26,1
	RCALL _TM1637_coding_all
	RCALL _TM1637_start
	LDI  R26,LOW(64)
	RCALL SUBOPT_0x5
	RCALL _TM1637_start
	MOV  R26,R5
	RCALL _TM1637_writeByte
	LDI  R17,LOW(0)
_0x1E:
	CPI  R17,4
	BRSH _0x1F
	RCALL SUBOPT_0x4
	ADD  R26,R30
	ADC  R27,R31
	LD   R26,X
	RCALL _TM1637_writeByte
	SUBI R17,-1
	RJMP _0x1E
_0x1F:
	RCALL _TM1637_stop
	RCALL _TM1637_start
	MOV  R26,R4
	RCALL SUBOPT_0x5
	LDD  R17,Y+0
	ADIW R28,7
	RET
; .FEND
_TM1637_display:
; .FSTART _TM1637_display
	ST   -Y,R26
	ST   -Y,R17
;	BitAddr -> Y+2
;	DispData -> Y+1
;	SegData -> R17
	LDD  R26,Y+1
	RCALL _TM1637_coding
	MOV  R17,R30
	RCALL _TM1637_start
	LDI  R26,LOW(68)
	RCALL SUBOPT_0x5
	RCALL _TM1637_start
	LDD  R30,Y+2
	ORI  R30,LOW(0xC0)
	MOV  R26,R30
	RCALL _TM1637_writeByte
	MOV  R26,R17
	RCALL SUBOPT_0x5
	RCALL _TM1637_start
	MOV  R26,R4
	RCALL SUBOPT_0x5
	LDD  R17,Y+0
	RJMP _0x2000001
; .FEND
_TM1637_display_int_decimal:
; .FSTART _TM1637_display_int_decimal
	ST   -Y,R27
	ST   -Y,R26
	SBIW R28,4
;	Decimal -> Y+4
;	temp -> Y+0
	RCALL SUBOPT_0x6
	CPI  R26,LOW(0x2710)
	LDI  R30,HIGH(0x2710)
	CPC  R27,R30
	BRGE _0x21
	RCALL SUBOPT_0x6
	CPI  R26,LOW(0xFC19)
	LDI  R30,HIGH(0xFC19)
	CPC  R27,R30
	BRGE _0x20
_0x21:
	RJMP _0x2000003
_0x20:
	LDD  R26,Y+5
	TST  R26
	BRPL _0x23
	LDI  R30,LOW(16)
	ST   Y,R30
	LDD  R30,Y+4
	LDD  R31,Y+4+1
	COM  R30
	COM  R31
	ADIW R30,1
	RCALL SUBOPT_0x7
	RCALL SUBOPT_0x8
	RCALL SUBOPT_0x9
	RCALL SUBOPT_0xA
	RCALL SUBOPT_0xB
	BREQ _0x24
	LDD  R30,Y+1
	CPI  R30,0
	BRNE _0x25
	RCALL SUBOPT_0xC
	BRNE _0x26
	LDI  R30,LOW(17)
	STD  Y+2,R30
_0x26:
_0x25:
_0x24:
	RJMP _0x27
_0x23:
	RCALL SUBOPT_0x6
	LDI  R30,LOW(1000)
	LDI  R31,HIGH(1000)
	RCALL __DIVW21
	ST   Y,R30
	RCALL SUBOPT_0x6
	LDI  R30,LOW(1000)
	LDI  R31,HIGH(1000)
	RCALL __MODW21
	RCALL SUBOPT_0x7
	RCALL SUBOPT_0x8
	RCALL SUBOPT_0x9
	RCALL SUBOPT_0xA
	RCALL SUBOPT_0xB
	BREQ _0x28
	LD   R30,Y
	CPI  R30,0
	BRNE _0x29
	LDI  R30,LOW(17)
	ST   Y,R30
	LDD  R30,Y+1
	CPI  R30,0
	BRNE _0x2A
	RCALL SUBOPT_0xC
	BRNE _0x2B
	LDI  R30,LOW(17)
	STD  Y+2,R30
_0x2B:
_0x2A:
_0x29:
_0x28:
_0x27:
	LDI  R30,LOW(1)
	MOV  R8,R30
	MOVW R26,R28
	RCALL _TM1637_display_all
_0x2000003:
	ADIW R28,6
	RET
; .FEND
_TM1637_display_float_decimal:
; .FSTART _TM1637_display_float_decimal
	RCALL __PUTPARD2
	RCALL __SAVELOCR4
;	Decimal -> Y+4
;	temp -> R16,R17
;	i -> R19
	RCALL SUBOPT_0xD
	__GETD1N 0x461C3C00
	RCALL __CMPF12
	BREQ PC+2
	BRCC PC+2
	RJMP _0x2C
	RJMP _0x2000002
_0x2C:
	RCALL SUBOPT_0xD
	__GETD1N 0xC479C000
	RCALL __CMPF12
	BRSH _0x2E
	RJMP _0x2000002
_0x2E:
	RCALL SUBOPT_0xD
	RCALL __CPD02
	BRGE _0x2F
	LDI  R19,LOW(3)
_0x31:
	CPI  R19,1
	BRLO _0x32
	RCALL SUBOPT_0xD
	__GETD1N 0x447A0000
	RCALL __CMPF12
	BRSH _0x33
	RCALL SUBOPT_0xE
	RJMP _0x34
_0x33:
	RJMP _0x32
_0x34:
	SUBI R19,1
	RJMP _0x31
_0x32:
	RCALL SUBOPT_0xF
	MOVW R30,R16
	RCALL SUBOPT_0xD
	RCALL __CWD1
	RCALL __CDF1
	RCALL SUBOPT_0x10
	BREQ PC+2
	BRCC PC+2
	RJMP _0x35
	__ADDWRN 16,17,1
_0x35:
	RJMP _0x36
_0x2F:
	LDI  R19,LOW(3)
_0x38:
	CPI  R19,2
	BRLO _0x39
	RCALL SUBOPT_0xD
	__GETD1N 0xC2C80000
	RCALL __CMPF12
	BREQ PC+2
	BRCC PC+2
	RJMP _0x3A
	RCALL SUBOPT_0xE
	RJMP _0x3B
_0x3A:
	RJMP _0x39
_0x3B:
	SUBI R19,1
	RJMP _0x38
_0x39:
	RCALL SUBOPT_0xF
	__GETD1S 4
	MOVW R26,R16
	RCALL __CWD2
	RCALL __CDF2
	RCALL SUBOPT_0x10
	BREQ PC+2
	BRCC PC+2
	RJMP _0x3C
	__SUBWRN 16,17,1
_0x3C:
_0x36:
	MOV  R9,R19
	CLR  R8
	MOVW R26,R16
	RCALL _TM1637_display_int_decimal
_0x2000002:
	RCALL __LOADLOCR4
	ADIW R28,8
	RET
; .FEND
_TM1637_clearDisplay:
; .FSTART _TM1637_clearDisplay
	LDI  R30,LOW(0)
	RCALL SUBOPT_0x11
	LDI  R30,LOW(1)
	RCALL SUBOPT_0x11
	LDI  R30,LOW(2)
	RCALL SUBOPT_0x11
	LDI  R30,LOW(3)
	RCALL SUBOPT_0x11
	RET
; .FEND
_TM1637_init:
; .FSTART _TM1637_init
	ST   -Y,R26
;	DispType -> Y+0
	IN   R30,0x17
	ORI  R30,LOW(0x3)
	OUT  0x17,R30
	LDD  R6,Y+0
	LDI  R30,LOW(1)
	MOV  R8,R30
	CP   R30,R6
	BRNE _0x3D
	MOV  R7,R30
	RJMP _0x3E
_0x3D:
	CLR  R7
_0x3E:
	LDI  R30,LOW(3)
	MOV  R9,R30
	RCALL _TM1637_clearDisplay
	ADIW R28,1
	RET
; .FEND
_TM1637_set:
; .FSTART _TM1637_set
	ST   -Y,R26
;	brightness -> Y+2
;	DispOnOff -> Y+1
;	SetAddr -> Y+0
	LDD  R5,Y+0
	LDD  R30,Y+2
	LDD  R26,Y+1
	ADD  R30,R26
	MOV  R4,R30
_0x2000001:
	ADIW R28,3
	RET
; .FEND
;	PointFlag -> Y+0
;
;// Declare your global variables here
;
;unsigned char SegData1[4]={0,1,2,3};//записываем в массив цифры 0,1,2,3

	.DSEG
;
;void main(void)
; 0000 0020 {

	.CSEG
_main:
; .FSTART _main
; 0000 0021 // Declare your local variables here
; 0000 0022 
; 0000 0023 // Input/Output Ports initialization
; 0000 0024 // Port B initialization
; 0000 0025 // Function: Bit7=In Bit6=In Bit5=In Bit4=In Bit3=In Bit2=In Bit1=Out Bit0=Out
; 0000 0026 DDRB=(0<<DDB7) | (0<<DDB6) | (0<<DDB5) | (0<<DDB4) | (0<<DDB3) | (0<<DDB2) | (1<<DDB1) | (1<<DDB0);
	LDI  R30,LOW(3)
	OUT  0x17,R30
; 0000 0027 // State: Bit7=T Bit6=T Bit5=T Bit4=T Bit3=T Bit2=T Bit1=1 Bit0=1
; 0000 0028 PORTB=(0<<PORTB7) | (0<<PORTB6) | (0<<PORTB5) | (0<<PORTB4) | (0<<PORTB3) | (0<<PORTB2) | (1<<PORTB1) | (1<<PORTB0);
	OUT  0x18,R30
; 0000 0029 
; 0000 002A // Port C initialization
; 0000 002B // Function: Bit6=In Bit5=In Bit4=In Bit3=In Bit2=In Bit1=In Bit0=In
; 0000 002C DDRC=(0<<DDC6) | (0<<DDC5) | (0<<DDC4) | (0<<DDC3) | (0<<DDC2) | (0<<DDC1) | (0<<DDC0);
	LDI  R30,LOW(0)
	OUT  0x14,R30
; 0000 002D // State: Bit6=T Bit5=T Bit4=T Bit3=T Bit2=T Bit1=T Bit0=T
; 0000 002E PORTC=(0<<PORTC6) | (0<<PORTC5) | (0<<PORTC4) | (0<<PORTC3) | (0<<PORTC2) | (0<<PORTC1) | (0<<PORTC0);
	OUT  0x15,R30
; 0000 002F 
; 0000 0030 // Port D initialization
; 0000 0031 // Function: Bit7=In Bit6=In Bit5=In Bit4=In Bit3=In Bit2=In Bit1=In Bit0=In
; 0000 0032 DDRD=(0<<DDD7) | (0<<DDD6) | (0<<DDD5) | (0<<DDD4) | (0<<DDD3) | (0<<DDD2) | (0<<DDD1) | (0<<DDD0);
	OUT  0x11,R30
; 0000 0033 // State: Bit7=T Bit6=T Bit5=T Bit4=T Bit3=T Bit2=T Bit1=T Bit0=T
; 0000 0034 PORTD=(0<<PORTD7) | (0<<PORTD6) | (0<<PORTD5) | (0<<PORTD4) | (0<<PORTD3) | (0<<PORTD2) | (0<<PORTD1) | (0<<PORTD0);
	OUT  0x12,R30
; 0000 0035 
; 0000 0036 // Timer/Counter 0 initialization
; 0000 0037 // Clock source: System Clock
; 0000 0038 // Clock value: Timer 0 Stopped
; 0000 0039 TCCR0=(0<<CS02) | (0<<CS01) | (0<<CS00);
	OUT  0x33,R30
; 0000 003A TCNT0=0x00;
	OUT  0x32,R30
; 0000 003B 
; 0000 003C // Timer/Counter 1 initialization
; 0000 003D // Clock source: System Clock
; 0000 003E // Clock value: Timer1 Stopped
; 0000 003F // Mode: Normal top=0xFFFF
; 0000 0040 // OC1A output: Disconnected
; 0000 0041 // OC1B output: Disconnected
; 0000 0042 // Noise Canceler: Off
; 0000 0043 // Input Capture on Falling Edge
; 0000 0044 // Timer1 Overflow Interrupt: Off
; 0000 0045 // Input Capture Interrupt: Off
; 0000 0046 // Compare A Match Interrupt: Off
; 0000 0047 // Compare B Match Interrupt: Off
; 0000 0048 TCCR1A=(0<<COM1A1) | (0<<COM1A0) | (0<<COM1B1) | (0<<COM1B0) | (0<<WGM11) | (0<<WGM10);
	OUT  0x2F,R30
; 0000 0049 TCCR1B=(0<<ICNC1) | (0<<ICES1) | (0<<WGM13) | (0<<WGM12) | (0<<CS12) | (0<<CS11) | (0<<CS10);
	OUT  0x2E,R30
; 0000 004A TCNT1H=0x00;
	OUT  0x2D,R30
; 0000 004B TCNT1L=0x00;
	OUT  0x2C,R30
; 0000 004C ICR1H=0x00;
	OUT  0x27,R30
; 0000 004D ICR1L=0x00;
	OUT  0x26,R30
; 0000 004E OCR1AH=0x00;
	OUT  0x2B,R30
; 0000 004F OCR1AL=0x00;
	OUT  0x2A,R30
; 0000 0050 OCR1BH=0x00;
	OUT  0x29,R30
; 0000 0051 OCR1BL=0x00;
	OUT  0x28,R30
; 0000 0052 
; 0000 0053 // Timer/Counter 2 initialization
; 0000 0054 // Clock source: System Clock
; 0000 0055 // Clock value: Timer2 Stopped
; 0000 0056 // Mode: Normal top=0xFF
; 0000 0057 // OC2 output: Disconnected
; 0000 0058 ASSR=0<<AS2;
	OUT  0x22,R30
; 0000 0059 TCCR2=(0<<PWM2) | (0<<COM21) | (0<<COM20) | (0<<CTC2) | (0<<CS22) | (0<<CS21) | (0<<CS20);
	OUT  0x25,R30
; 0000 005A TCNT2=0x00;
	OUT  0x24,R30
; 0000 005B OCR2=0x00;
	OUT  0x23,R30
; 0000 005C 
; 0000 005D // Timer(s)/Counter(s) Interrupt(s) initialization
; 0000 005E TIMSK=(0<<OCIE2) | (0<<TOIE2) | (0<<TICIE1) | (0<<OCIE1A) | (0<<OCIE1B) | (0<<TOIE1) | (0<<TOIE0);
	OUT  0x39,R30
; 0000 005F 
; 0000 0060 // External Interrupt(s) initialization
; 0000 0061 // INT0: Off
; 0000 0062 // INT1: Off
; 0000 0063 MCUCR=(0<<ISC11) | (0<<ISC10) | (0<<ISC01) | (0<<ISC00);
	OUT  0x35,R30
; 0000 0064 
; 0000 0065 // USART initialization
; 0000 0066 // USART disabled
; 0000 0067 UCSRB=(0<<RXCIE) | (0<<TXCIE) | (0<<UDRIE) | (0<<RXEN) | (0<<TXEN) | (0<<UCSZ2) | (0<<RXB8) | (0<<TXB8);
	OUT  0xA,R30
; 0000 0068 
; 0000 0069 // Analog Comparator initialization
; 0000 006A // Analog Comparator: Off
; 0000 006B // The Analog Comparator's positive input is
; 0000 006C // connected to the AIN0 pin
; 0000 006D // The Analog Comparator's negative input is
; 0000 006E // connected to the AIN1 pin
; 0000 006F ACSR=(1<<ACD) | (0<<ACBG) | (0<<ACO) | (0<<ACI) | (0<<ACIE) | (0<<ACIC) | (0<<ACIS1) | (0<<ACIS0);
	LDI  R30,LOW(128)
	OUT  0x8,R30
; 0000 0070 SFIOR=(0<<ACME);
	LDI  R30,LOW(0)
	OUT  0x30,R30
; 0000 0071 
; 0000 0072 // ADC initialization
; 0000 0073 // ADC disabled
; 0000 0074 ADCSRA=(0<<ADEN) | (0<<ADSC) | (0<<ADFR) | (0<<ADIF) | (0<<ADIE) | (0<<ADPS2) | (0<<ADPS1) | (0<<ADPS0);
	OUT  0x6,R30
; 0000 0075 
; 0000 0076 // SPI initialization
; 0000 0077 // SPI disabled
; 0000 0078 SPCR=(0<<SPIE) | (0<<SPE) | (0<<DORD) | (0<<MSTR) | (0<<CPOL) | (0<<CPHA) | (0<<SPR1) | (0<<SPR0);
	OUT  0xD,R30
; 0000 0079 
; 0000 007A // TWI initialization
; 0000 007B // TWI disabled
; 0000 007C TWCR=(0<<TWEA) | (0<<TWSTA) | (0<<TWSTO) | (0<<TWEN) | (0<<TWIE);
	OUT  0x36,R30
; 0000 007D 
; 0000 007E TM1637_init(D4056A);//устанавливаем пины SCL и SDA
	LDI  R26,LOW(1)
	RCALL _TM1637_init
; 0000 007F TM1637_set(2,DISPLAY_ON,STARTADDR);// ставим ¤ркость 2
	LDI  R30,LOW(2)
	ST   -Y,R30
	LDI  R30,LOW(136)
	ST   -Y,R30
	LDI  R26,LOW(192)
	RCALL _TM1637_set
; 0000 0080 TM1637_clearDisplay();
	RCALL _TM1637_clearDisplay
; 0000 0081 delay_ms(200);//не знаю зачем, но тупим немного
	LDI  R26,LOW(200)
	LDI  R27,0
	RCALL _delay_ms
; 0000 0082 TM1637_display(2,3);
	LDI  R30,LOW(2)
	ST   -Y,R30
	LDI  R26,LOW(3)
	RCALL _TM1637_display
; 0000 0083 delay_ms(2000);
	RCALL SUBOPT_0x12
; 0000 0084 TM1637_clearDisplay();
; 0000 0085 TM1637_display_int_decimal(4235);
	LDI  R26,LOW(4235)
	LDI  R27,HIGH(4235)
	RCALL _TM1637_display_int_decimal
; 0000 0086 delay_ms(2000);
	RCALL SUBOPT_0x12
; 0000 0087 TM1637_clearDisplay();
; 0000 0088 TM1637_display_float_decimal(15.6);
	__GETD2N 0x4179999A
	RCALL _TM1637_display_float_decimal
; 0000 0089 delay_ms(2000);
	LDI  R26,LOW(2000)
	LDI  R27,HIGH(2000)
	RCALL _delay_ms
; 0000 008A 
; 0000 008B while (1)
_0x41:
; 0000 008C       {
; 0000 008D       // Place your code here
; 0000 008E //      char j;
; 0000 008F //      for (j=0;j<=15;j++)
; 0000 0090 //		{
; 0000 0091 //			SegData1[3]=j;
; 0000 0092 //			SegData1[2]=j;
; 0000 0093 //            SegData1[1]=j;
; 0000 0094 //            SegData1[0]=j;
; 0000 0095 //			TM1637_display_all(SegData1);
; 0000 0096 //			delay_ms(800);
; 0000 0097 //
; 0000 0098 //		}
; 0000 0099 
; 0000 009A       }
	RJMP _0x41
; 0000 009B }
_0x44:
	RJMP _0x44
; .FEND

	.DSEG
_TubeTab_G000:
	.BYTE 0x12

	.CSEG
;OPTIMIZER ADDED SUBROUTINE, CALLED 2 TIMES, CODE SIZE REDUCTION:1 WORDS
SUBOPT_0x0:
	SBI  0x18,0
	__DELAY_USB 5
	RET

;OPTIMIZER ADDED SUBROUTINE, CALLED 2 TIMES, CODE SIZE REDUCTION:1 WORDS
SUBOPT_0x1:
	__DELAY_USB 5
	CBI  0x18,1
	RET

;OPTIMIZER ADDED SUBROUTINE, CALLED 4 TIMES, CODE SIZE REDUCTION:10 WORDS
SUBOPT_0x2:
	LDD  R26,Y+2
	LDD  R27,Y+2+1
	CLR  R30
	ADD  R26,R16
	ADC  R27,R30
	RET

;OPTIMIZER ADDED SUBROUTINE, CALLED 2 TIMES, CODE SIZE REDUCTION:2 WORDS
SUBOPT_0x3:
	LDI  R31,0
	SUBI R30,LOW(-_TubeTab_G000)
	SBCI R31,HIGH(-_TubeTab_G000)
	LD   R30,Z
	ADD  R30,R17
	RET

;OPTIMIZER ADDED SUBROUTINE, CALLED 2 TIMES, CODE SIZE REDUCTION:1 WORDS
SUBOPT_0x4:
	MOV  R30,R17
	LDI  R31,0
	MOVW R26,R28
	ADIW R26,1
	RET

;OPTIMIZER ADDED SUBROUTINE, CALLED 5 TIMES, CODE SIZE REDUCTION:2 WORDS
SUBOPT_0x5:
	RCALL _TM1637_writeByte
	RJMP _TM1637_stop

;OPTIMIZER ADDED SUBROUTINE, CALLED 12 TIMES, CODE SIZE REDUCTION:9 WORDS
SUBOPT_0x6:
	LDD  R26,Y+4
	LDD  R27,Y+4+1
	RET

;OPTIMIZER ADDED SUBROUTINE, CALLED 4 TIMES, CODE SIZE REDUCTION:4 WORDS
SUBOPT_0x7:
	STD  Y+4,R30
	STD  Y+4+1,R31
	RJMP SUBOPT_0x6

;OPTIMIZER ADDED SUBROUTINE, CALLED 4 TIMES, CODE SIZE REDUCTION:1 WORDS
SUBOPT_0x8:
	LDI  R30,LOW(100)
	LDI  R31,HIGH(100)
	RET

;OPTIMIZER ADDED SUBROUTINE, CALLED 2 TIMES, CODE SIZE REDUCTION:3 WORDS
SUBOPT_0x9:
	RCALL __DIVW21
	STD  Y+1,R30
	RCALL SUBOPT_0x6
	RCALL SUBOPT_0x8
	RCALL __MODW21
	RJMP SUBOPT_0x7

;OPTIMIZER ADDED SUBROUTINE, CALLED 4 TIMES, CODE SIZE REDUCTION:1 WORDS
SUBOPT_0xA:
	LDI  R30,LOW(10)
	LDI  R31,HIGH(10)
	RET

;OPTIMIZER ADDED SUBROUTINE, CALLED 2 TIMES, CODE SIZE REDUCTION:4 WORDS
SUBOPT_0xB:
	RCALL __DIVW21
	STD  Y+2,R30
	RCALL SUBOPT_0x6
	RCALL SUBOPT_0xA
	RCALL __MODW21
	STD  Y+3,R30
	TST  R8
	RET

;OPTIMIZER ADDED SUBROUTINE, CALLED 2 TIMES, CODE SIZE REDUCTION:1 WORDS
SUBOPT_0xC:
	LDI  R30,LOW(17)
	STD  Y+1,R30
	LDD  R30,Y+2
	CPI  R30,0
	RET

;OPTIMIZER ADDED SUBROUTINE, CALLED 8 TIMES, CODE SIZE REDUCTION:19 WORDS
SUBOPT_0xD:
	__GETD2S 4
	RET

;OPTIMIZER ADDED SUBROUTINE, CALLED 2 TIMES, CODE SIZE REDUCTION:7 WORDS
SUBOPT_0xE:
	RCALL SUBOPT_0xD
	__GETD1N 0x41200000
	RCALL __MULF12
	__PUTD1S 4
	RET

;OPTIMIZER ADDED SUBROUTINE, CALLED 2 TIMES, CODE SIZE REDUCTION:3 WORDS
SUBOPT_0xF:
	__GETD1S 4
	RCALL __CFD1
	MOVW R16,R30
	RET

;OPTIMIZER ADDED SUBROUTINE, CALLED 2 TIMES, CODE SIZE REDUCTION:6 WORDS
SUBOPT_0x10:
	RCALL __SWAPD12
	RCALL __SUBF12
	MOVW R26,R30
	MOVW R24,R22
	__GETD1N 0x3F000000
	RCALL __CMPF12
	RET

;OPTIMIZER ADDED SUBROUTINE, CALLED 4 TIMES, CODE SIZE REDUCTION:4 WORDS
SUBOPT_0x11:
	ST   -Y,R30
	LDI  R26,LOW(17)
	RJMP _TM1637_display

;OPTIMIZER ADDED SUBROUTINE, CALLED 2 TIMES, CODE SIZE REDUCTION:1 WORDS
SUBOPT_0x12:
	LDI  R26,LOW(2000)
	LDI  R27,HIGH(2000)
	RCALL _delay_ms
	RJMP _TM1637_clearDisplay


	.CSEG
_delay_ms:
	adiw r26,0
	breq __delay_ms1
__delay_ms0:
	__DELAY_USW 0x7D0
	wdr
	sbiw r26,1
	brne __delay_ms0
__delay_ms1:
	ret

__ROUND_REPACK:
	TST  R21
	BRPL __REPACK
	CPI  R21,0x80
	BRNE __ROUND_REPACK0
	SBRS R30,0
	RJMP __REPACK
__ROUND_REPACK0:
	ADIW R30,1
	ADC  R22,R25
	ADC  R23,R25
	BRVS __REPACK1

__REPACK:
	LDI  R21,0x80
	EOR  R21,R23
	BRNE __REPACK0
	PUSH R21
	RJMP __ZERORES
__REPACK0:
	CPI  R21,0xFF
	BREQ __REPACK1
	LSL  R22
	LSL  R0
	ROR  R21
	ROR  R22
	MOV  R23,R21
	RET
__REPACK1:
	PUSH R21
	TST  R0
	BRMI __REPACK2
	RJMP __MAXRES
__REPACK2:
	RJMP __MINRES

__UNPACK:
	LDI  R21,0x80
	MOV  R1,R25
	AND  R1,R21
	LSL  R24
	ROL  R25
	EOR  R25,R21
	LSL  R21
	ROR  R24

__UNPACK1:
	LDI  R21,0x80
	MOV  R0,R23
	AND  R0,R21
	LSL  R22
	ROL  R23
	EOR  R23,R21
	LSL  R21
	ROR  R22
	RET

__CFD1U:
	SET
	RJMP __CFD1U0
__CFD1:
	CLT
__CFD1U0:
	PUSH R21
	RCALL __UNPACK1
	CPI  R23,0x80
	BRLO __CFD10
	CPI  R23,0xFF
	BRCC __CFD10
	RJMP __ZERORES
__CFD10:
	LDI  R21,22
	SUB  R21,R23
	BRPL __CFD11
	NEG  R21
	CPI  R21,8
	BRTC __CFD19
	CPI  R21,9
__CFD19:
	BRLO __CFD17
	SER  R30
	SER  R31
	SER  R22
	LDI  R23,0x7F
	BLD  R23,7
	RJMP __CFD15
__CFD17:
	CLR  R23
	TST  R21
	BREQ __CFD15
__CFD18:
	LSL  R30
	ROL  R31
	ROL  R22
	ROL  R23
	DEC  R21
	BRNE __CFD18
	RJMP __CFD15
__CFD11:
	CLR  R23
__CFD12:
	CPI  R21,8
	BRLO __CFD13
	MOV  R30,R31
	MOV  R31,R22
	MOV  R22,R23
	SUBI R21,8
	RJMP __CFD12
__CFD13:
	TST  R21
	BREQ __CFD15
__CFD14:
	LSR  R23
	ROR  R22
	ROR  R31
	ROR  R30
	DEC  R21
	BRNE __CFD14
__CFD15:
	TST  R0
	BRPL __CFD16
	RCALL __ANEGD1
__CFD16:
	POP  R21
	RET

__CDF1U:
	SET
	RJMP __CDF1U0
__CDF1:
	CLT
__CDF1U0:
	SBIW R30,0
	SBCI R22,0
	SBCI R23,0
	BREQ __CDF10
	CLR  R0
	BRTS __CDF11
	TST  R23
	BRPL __CDF11
	COM  R0
	RCALL __ANEGD1
__CDF11:
	MOV  R1,R23
	LDI  R23,30
	TST  R1
__CDF12:
	BRMI __CDF13
	DEC  R23
	LSL  R30
	ROL  R31
	ROL  R22
	ROL  R1
	RJMP __CDF12
__CDF13:
	MOV  R30,R31
	MOV  R31,R22
	MOV  R22,R1
	PUSH R21
	RCALL __REPACK
	POP  R21
__CDF10:
	RET

__SWAPACC:
	PUSH R20
	MOVW R20,R30
	MOVW R30,R26
	MOVW R26,R20
	MOVW R20,R22
	MOVW R22,R24
	MOVW R24,R20
	MOV  R20,R0
	MOV  R0,R1
	MOV  R1,R20
	POP  R20
	RET

__UADD12:
	ADD  R30,R26
	ADC  R31,R27
	ADC  R22,R24
	RET

__NEGMAN1:
	COM  R30
	COM  R31
	COM  R22
	SUBI R30,-1
	SBCI R31,-1
	SBCI R22,-1
	RET

__SUBF12:
	PUSH R21
	RCALL __UNPACK
	CPI  R25,0x80
	BREQ __ADDF129
	LDI  R21,0x80
	EOR  R1,R21

__ADDF120:
	CPI  R23,0x80
	BREQ __ADDF128
__ADDF121:
	MOV  R21,R23
	SUB  R21,R25
	BRVS __ADDF1211
	BRPL __ADDF122
	RCALL __SWAPACC
	RJMP __ADDF121
__ADDF122:
	CPI  R21,24
	BRLO __ADDF123
	CLR  R26
	CLR  R27
	CLR  R24
__ADDF123:
	CPI  R21,8
	BRLO __ADDF124
	MOV  R26,R27
	MOV  R27,R24
	CLR  R24
	SUBI R21,8
	RJMP __ADDF123
__ADDF124:
	TST  R21
	BREQ __ADDF126
__ADDF125:
	LSR  R24
	ROR  R27
	ROR  R26
	DEC  R21
	BRNE __ADDF125
__ADDF126:
	MOV  R21,R0
	EOR  R21,R1
	BRMI __ADDF127
	RCALL __UADD12
	BRCC __ADDF129
	ROR  R22
	ROR  R31
	ROR  R30
	INC  R23
	BRVC __ADDF129
	RJMP __MAXRES
__ADDF128:
	RCALL __SWAPACC
__ADDF129:
	RCALL __REPACK
	POP  R21
	RET
__ADDF1211:
	BRCC __ADDF128
	RJMP __ADDF129
__ADDF127:
	SUB  R30,R26
	SBC  R31,R27
	SBC  R22,R24
	BREQ __ZERORES
	BRCC __ADDF1210
	COM  R0
	RCALL __NEGMAN1
__ADDF1210:
	TST  R22
	BRMI __ADDF129
	LSL  R30
	ROL  R31
	ROL  R22
	DEC  R23
	BRVC __ADDF1210

__ZERORES:
	CLR  R30
	CLR  R31
	CLR  R22
	CLR  R23
	POP  R21
	RET

__MINRES:
	SER  R30
	SER  R31
	LDI  R22,0x7F
	SER  R23
	POP  R21
	RET

__MAXRES:
	SER  R30
	SER  R31
	LDI  R22,0x7F
	LDI  R23,0x7F
	POP  R21
	RET

__MULF12:
	PUSH R21
	RCALL __UNPACK
	CPI  R23,0x80
	BREQ __ZERORES
	CPI  R25,0x80
	BREQ __ZERORES
	EOR  R0,R1
	SEC
	ADC  R23,R25
	BRVC __MULF124
	BRLT __ZERORES
__MULF125:
	TST  R0
	BRMI __MINRES
	RJMP __MAXRES
__MULF124:
	PUSH R0
	PUSH R17
	PUSH R18
	PUSH R19
	PUSH R20
	CLR  R17
	CLR  R18
	CLR  R25
	MUL  R22,R24
	MOVW R20,R0
	MUL  R24,R31
	MOV  R19,R0
	ADD  R20,R1
	ADC  R21,R25
	MUL  R22,R27
	ADD  R19,R0
	ADC  R20,R1
	ADC  R21,R25
	MUL  R24,R30
	RCALL __MULF126
	MUL  R27,R31
	RCALL __MULF126
	MUL  R22,R26
	RCALL __MULF126
	MUL  R27,R30
	RCALL __MULF127
	MUL  R26,R31
	RCALL __MULF127
	MUL  R26,R30
	ADD  R17,R1
	ADC  R18,R25
	ADC  R19,R25
	ADC  R20,R25
	ADC  R21,R25
	MOV  R30,R19
	MOV  R31,R20
	MOV  R22,R21
	MOV  R21,R18
	POP  R20
	POP  R19
	POP  R18
	POP  R17
	POP  R0
	TST  R22
	BRMI __MULF122
	LSL  R21
	ROL  R30
	ROL  R31
	ROL  R22
	RJMP __MULF123
__MULF122:
	INC  R23
	BRVS __MULF125
__MULF123:
	RCALL __ROUND_REPACK
	POP  R21
	RET

__MULF127:
	ADD  R17,R0
	ADC  R18,R1
	ADC  R19,R25
	RJMP __MULF128
__MULF126:
	ADD  R18,R0
	ADC  R19,R1
__MULF128:
	ADC  R20,R25
	ADC  R21,R25
	RET

__CMPF12:
	TST  R25
	BRMI __CMPF120
	TST  R23
	BRMI __CMPF121
	CP   R25,R23
	BRLO __CMPF122
	BRNE __CMPF121
	CP   R26,R30
	CPC  R27,R31
	CPC  R24,R22
	BRLO __CMPF122
	BREQ __CMPF123
__CMPF121:
	CLZ
	CLC
	RET
__CMPF122:
	CLZ
	SEC
	RET
__CMPF123:
	SEZ
	CLC
	RET
__CMPF120:
	TST  R23
	BRPL __CMPF122
	CP   R25,R23
	BRLO __CMPF121
	BRNE __CMPF122
	CP   R30,R26
	CPC  R31,R27
	CPC  R22,R24
	BRLO __CMPF122
	BREQ __CMPF123
	RJMP __CMPF121

__ANEGW1:
	NEG  R31
	NEG  R30
	SBCI R31,0
	RET

__ANEGD1:
	COM  R31
	COM  R22
	COM  R23
	NEG  R30
	SBCI R31,-1
	SBCI R22,-1
	SBCI R23,-1
	RET

__CWD1:
	MOV  R22,R31
	ADD  R22,R22
	SBC  R22,R22
	MOV  R23,R22
	RET

__CWD2:
	MOV  R24,R27
	ADD  R24,R24
	SBC  R24,R24
	MOV  R25,R24
	RET

__DIVW21U:
	CLR  R0
	CLR  R1
	LDI  R25,16
__DIVW21U1:
	LSL  R26
	ROL  R27
	ROL  R0
	ROL  R1
	SUB  R0,R30
	SBC  R1,R31
	BRCC __DIVW21U2
	ADD  R0,R30
	ADC  R1,R31
	RJMP __DIVW21U3
__DIVW21U2:
	SBR  R26,1
__DIVW21U3:
	DEC  R25
	BRNE __DIVW21U1
	MOVW R30,R26
	MOVW R26,R0
	RET

__DIVW21:
	RCALL __CHKSIGNW
	RCALL __DIVW21U
	BRTC __DIVW211
	RCALL __ANEGW1
__DIVW211:
	RET

__MODW21:
	CLT
	SBRS R27,7
	RJMP __MODW211
	COM  R26
	COM  R27
	ADIW R26,1
	SET
__MODW211:
	SBRC R31,7
	RCALL __ANEGW1
	RCALL __DIVW21U
	MOVW R30,R26
	BRTC __MODW212
	RCALL __ANEGW1
__MODW212:
	RET

__CHKSIGNW:
	CLT
	SBRS R31,7
	RJMP __CHKSW1
	RCALL __ANEGW1
	SET
__CHKSW1:
	SBRS R27,7
	RJMP __CHKSW2
	COM  R26
	COM  R27
	ADIW R26,1
	BLD  R0,0
	INC  R0
	BST  R0,0
__CHKSW2:
	RET

__PUTPARD2:
	ST   -Y,R25
	ST   -Y,R24
	ST   -Y,R27
	ST   -Y,R26
	RET

__CDF2U:
	SET
	RJMP __CDF2U0
__CDF2:
	CLT
__CDF2U0:
	RCALL __SWAPD12
	RCALL __CDF1U0

__SWAPD12:
	MOV  R1,R24
	MOV  R24,R22
	MOV  R22,R1
	MOV  R1,R25
	MOV  R25,R23
	MOV  R23,R1

__SWAPW12:
	MOV  R1,R27
	MOV  R27,R31
	MOV  R31,R1

__SWAPB12:
	MOV  R1,R26
	MOV  R26,R30
	MOV  R30,R1
	RET

__CPD02:
	CLR  R0
	CP   R0,R26
	CPC  R0,R27
	CPC  R0,R24
	CPC  R0,R25
	RET

__SAVELOCR4:
	ST   -Y,R19
__SAVELOCR3:
	ST   -Y,R18
__SAVELOCR2:
	ST   -Y,R17
	ST   -Y,R16
	RET

__LOADLOCR4:
	LDD  R19,Y+3
__LOADLOCR3:
	LDD  R18,Y+2
__LOADLOCR2:
	LDD  R17,Y+1
	LD   R16,Y
	RET

;END OF CODE MARKER
__END_OF_CODE:
