
AVRASM ver. 2.1.30  D:\Projects AVR\LCD1602_I2C\Debug\List\LCD1602_I2C.asm Mon May 31 18:39:29 2021

D:\Projects AVR\LCD1602_I2C\Debug\List\LCD1602_I2C.asm(1086): warning: Register r5 already defined by the .DEF directive
D:\Projects AVR\LCD1602_I2C\Debug\List\LCD1602_I2C.asm(1087): warning: Register r4 already defined by the .DEF directive
D:\Projects AVR\LCD1602_I2C\Debug\List\LCD1602_I2C.asm(1088): warning: Register r7 already defined by the .DEF directive
                 
                 
                 ;CodeVisionAVR C Compiler V3.12 Advanced
                 ;(C) Copyright 1998-2014 Pavel Haiduc, HP InfoTech s.r.l.
                 ;http://www.hpinfotech.com
                 
                 ;Build configuration    : Debug
                 ;Chip type              : ATmega8A
                 ;Program type           : Application
                 ;Clock frequency        : 8,000000 MHz
                 ;Memory model           : Small
                 ;Optimize for           : Size
                 ;(s)printf features     : int, width
                 ;(s)scanf features      : int, width
                 ;External RAM size      : 0
                 ;Data Stack size        : 256 byte(s)
                 ;Heap size              : 0 byte(s)
                 ;Promote 'char' to 'int': Yes
                 ;'char' is unsigned     : Yes
                 ;8 bit enums            : Yes
                 ;Global 'const' stored in FLASH: Yes
                 ;Enhanced function parameter passing: Yes
                 ;Enhanced core instructions: On
                 ;Automatic register allocation for global variables: On
                 ;Smart register allocation: On
                 
                 	#define _MODEL_SMALL_
                 
                 	#pragma AVRPART ADMIN PART_NAME ATmega8A
                 	#pragma AVRPART MEMORY PROG_FLASH 8192
                 	#pragma AVRPART MEMORY EEPROM 512
                 	#pragma AVRPART MEMORY INT_SRAM SIZE 1024
                 	#pragma AVRPART MEMORY INT_SRAM START_ADDR 0x60
                 
                 	.LISTMAC
                 	.EQU UDRE=0x5
                 	.EQU RXC=0x7
                 	.EQU USR=0xB
                 	.EQU UDR=0xC
                 	.EQU SPSR=0xE
                 	.EQU SPDR=0xF
                 	.EQU EERE=0x0
                 	.EQU EEWE=0x1
                 	.EQU EEMWE=0x2
                 	.EQU EECR=0x1C
                 	.EQU EEDR=0x1D
                 	.EQU EEARL=0x1E
                 	.EQU EEARH=0x1F
                 	.EQU WDTCR=0x21
                 	.EQU MCUCR=0x35
                 	.EQU GICR=0x3B
                 	.EQU SPL=0x3D
                 	.EQU SPH=0x3E
                 	.EQU SREG=0x3F
                 
                 	.DEF R0X0=R0
                 	.DEF R0X1=R1
                 	.DEF R0X2=R2
                 	.DEF R0X3=R3
                 	.DEF R0X4=R4
                 	.DEF R0X5=R5
                 	.DEF R0X6=R6
                 	.DEF R0X7=R7
                 	.DEF R0X8=R8
                 	.DEF R0X9=R9
                 	.DEF R0XA=R10
                 	.DEF R0XB=R11
                 	.DEF R0XC=R12
                 	.DEF R0XD=R13
                 	.DEF R0XE=R14
                 	.DEF R0XF=R15
                 	.DEF R0X10=R16
                 	.DEF R0X11=R17
                 	.DEF R0X12=R18
                 	.DEF R0X13=R19
                 	.DEF R0X14=R20
                 	.DEF R0X15=R21
                 	.DEF R0X16=R22
                 	.DEF R0X17=R23
                 	.DEF R0X18=R24
                 	.DEF R0X19=R25
                 	.DEF R0X1A=R26
                 	.DEF R0X1B=R27
                 	.DEF R0X1C=R28
                 	.DEF R0X1D=R29
                 	.DEF R0X1E=R30
                 	.DEF R0X1F=R31
                 
                 	.EQU __SRAM_START=0x0060
                 	.EQU __SRAM_END=0x045F
                 	.EQU __DSTACK_SIZE=0x0100
                 	.EQU __HEAP_SIZE=0x0000
                 	.EQU __CLEAR_SRAM_SIZE=__SRAM_END-__SRAM_START+1
                 
                 	.MACRO __CPD1N
                 	CPI  R30,LOW(@0)
                 	LDI  R26,HIGH(@0)
                 	CPC  R31,R26
                 	LDI  R26,BYTE3(@0)
                 	CPC  R22,R26
                 	LDI  R26,BYTE4(@0)
                 	CPC  R23,R26
                 	.ENDM
                 
                 	.MACRO __CPD2N
                 	CPI  R26,LOW(@0)
                 	LDI  R30,HIGH(@0)
                 	CPC  R27,R30
                 	LDI  R30,BYTE3(@0)
                 	CPC  R24,R30
                 	LDI  R30,BYTE4(@0)
                 	CPC  R25,R30
                 	.ENDM
                 
                 	.MACRO __CPWRR
                 	CP   R@0,R@2
                 	CPC  R@1,R@3
                 	.ENDM
                 
                 	.MACRO __CPWRN
                 	CPI  R@0,LOW(@2)
                 	LDI  R30,HIGH(@2)
                 	CPC  R@1,R30
                 	.ENDM
                 
                 	.MACRO __ADDB1MN
                 	SUBI R30,LOW(-@0-(@1))
                 	.ENDM
                 
                 	.MACRO __ADDB2MN
                 	SUBI R26,LOW(-@0-(@1))
                 	.ENDM
                 
                 	.MACRO __ADDW1MN
                 	SUBI R30,LOW(-@0-(@1))
                 	SBCI R31,HIGH(-@0-(@1))
                 	.ENDM
                 
                 	.MACRO __ADDW2MN
                 	SUBI R26,LOW(-@0-(@1))
                 	SBCI R27,HIGH(-@0-(@1))
                 	.ENDM
                 
                 	.MACRO __ADDW1FN
                 	SUBI R30,LOW(-2*@0-(@1))
                 	SBCI R31,HIGH(-2*@0-(@1))
                 	.ENDM
                 
                 	.MACRO __ADDD1FN
                 	SUBI R30,LOW(-2*@0-(@1))
                 	SBCI R31,HIGH(-2*@0-(@1))
                 	SBCI R22,BYTE3(-2*@0-(@1))
                 	.ENDM
                 
                 	.MACRO __ADDD1N
                 	SUBI R30,LOW(-@0)
                 	SBCI R31,HIGH(-@0)
                 	SBCI R22,BYTE3(-@0)
                 	SBCI R23,BYTE4(-@0)
                 	.ENDM
                 
                 	.MACRO __ADDD2N
                 	SUBI R26,LOW(-@0)
                 	SBCI R27,HIGH(-@0)
                 	SBCI R24,BYTE3(-@0)
                 	SBCI R25,BYTE4(-@0)
                 	.ENDM
                 
                 	.MACRO __SUBD1N
                 	SUBI R30,LOW(@0)
                 	SBCI R31,HIGH(@0)
                 	SBCI R22,BYTE3(@0)
                 	SBCI R23,BYTE4(@0)
                 	.ENDM
                 
                 	.MACRO __SUBD2N
                 	SUBI R26,LOW(@0)
                 	SBCI R27,HIGH(@0)
                 	SBCI R24,BYTE3(@0)
                 	SBCI R25,BYTE4(@0)
                 	.ENDM
                 
                 	.MACRO __ANDBMNN
                 	LDS  R30,@0+(@1)
                 	ANDI R30,LOW(@2)
                 	STS  @0+(@1),R30
                 	.ENDM
                 
                 	.MACRO __ANDWMNN
                 	LDS  R30,@0+(@1)
                 	ANDI R30,LOW(@2)
                 	STS  @0+(@1),R30
                 	LDS  R30,@0+(@1)+1
                 	ANDI R30,HIGH(@2)
                 	STS  @0+(@1)+1,R30
                 	.ENDM
                 
                 	.MACRO __ANDD1N
                 	ANDI R30,LOW(@0)
                 	ANDI R31,HIGH(@0)
                 	ANDI R22,BYTE3(@0)
                 	ANDI R23,BYTE4(@0)
                 	.ENDM
                 
                 	.MACRO __ANDD2N
                 	ANDI R26,LOW(@0)
                 	ANDI R27,HIGH(@0)
                 	ANDI R24,BYTE3(@0)
                 	ANDI R25,BYTE4(@0)
                 	.ENDM
                 
                 	.MACRO __ORBMNN
                 	LDS  R30,@0+(@1)
                 	ORI  R30,LOW(@2)
                 	STS  @0+(@1),R30
                 	.ENDM
                 
                 	.MACRO __ORWMNN
                 	LDS  R30,@0+(@1)
                 	ORI  R30,LOW(@2)
                 	STS  @0+(@1),R30
                 	LDS  R30,@0+(@1)+1
                 	ORI  R30,HIGH(@2)
                 	STS  @0+(@1)+1,R30
                 	.ENDM
                 
                 	.MACRO __ORD1N
                 	ORI  R30,LOW(@0)
                 	ORI  R31,HIGH(@0)
                 	ORI  R22,BYTE3(@0)
                 	ORI  R23,BYTE4(@0)
                 	.ENDM
                 
                 	.MACRO __ORD2N
                 	ORI  R26,LOW(@0)
                 	ORI  R27,HIGH(@0)
                 	ORI  R24,BYTE3(@0)
                 	ORI  R25,BYTE4(@0)
                 	.ENDM
                 
                 	.MACRO __DELAY_USB
                 	LDI  R24,LOW(@0)
                 __DELAY_USB_LOOP:
                 	DEC  R24
                 	BRNE __DELAY_USB_LOOP
                 	.ENDM
                 
                 	.MACRO __DELAY_USW
                 	LDI  R24,LOW(@0)
                 	LDI  R25,HIGH(@0)
                 __DELAY_USW_LOOP:
                 	SBIW R24,1
                 	BRNE __DELAY_USW_LOOP
                 	.ENDM
                 
                 	.MACRO __GETD1S
                 	LDD  R30,Y+@0
                 	LDD  R31,Y+@0+1
                 	LDD  R22,Y+@0+2
                 	LDD  R23,Y+@0+3
                 	.ENDM
                 
                 	.MACRO __GETD2S
                 	LDD  R26,Y+@0
                 	LDD  R27,Y+@0+1
                 	LDD  R24,Y+@0+2
                 	LDD  R25,Y+@0+3
                 	.ENDM
                 
                 	.MACRO __PUTD1S
                 	STD  Y+@0,R30
                 	STD  Y+@0+1,R31
                 	STD  Y+@0+2,R22
                 	STD  Y+@0+3,R23
                 	.ENDM
                 
                 	.MACRO __PUTD2S
                 	STD  Y+@0,R26
                 	STD  Y+@0+1,R27
                 	STD  Y+@0+2,R24
                 	STD  Y+@0+3,R25
                 	.ENDM
                 
                 	.MACRO __PUTDZ2
                 	STD  Z+@0,R26
                 	STD  Z+@0+1,R27
                 	STD  Z+@0+2,R24
                 	STD  Z+@0+3,R25
                 	.ENDM
                 
                 	.MACRO __CLRD1S
                 	STD  Y+@0,R30
                 	STD  Y+@0+1,R30
                 	STD  Y+@0+2,R30
                 	STD  Y+@0+3,R30
                 	.ENDM
                 
                 	.MACRO __POINTB1MN
                 	LDI  R30,LOW(@0+(@1))
                 	.ENDM
                 
                 	.MACRO __POINTW1MN
                 	LDI  R30,LOW(@0+(@1))
                 	LDI  R31,HIGH(@0+(@1))
                 	.ENDM
                 
                 	.MACRO __POINTD1M
                 	LDI  R30,LOW(@0)
                 	LDI  R31,HIGH(@0)
                 	LDI  R22,BYTE3(@0)
                 	LDI  R23,BYTE4(@0)
                 	.ENDM
                 
                 	.MACRO __POINTW1FN
                 	LDI  R30,LOW(2*@0+(@1))
                 	LDI  R31,HIGH(2*@0+(@1))
                 	.ENDM
                 
                 	.MACRO __POINTD1FN
                 	LDI  R30,LOW(2*@0+(@1))
                 	LDI  R31,HIGH(2*@0+(@1))
                 	LDI  R22,BYTE3(2*@0+(@1))
                 	LDI  R23,BYTE4(2*@0+(@1))
                 	.ENDM
                 
                 	.MACRO __POINTB2MN
                 	LDI  R26,LOW(@0+(@1))
                 	.ENDM
                 
                 	.MACRO __POINTW2MN
                 	LDI  R26,LOW(@0+(@1))
                 	LDI  R27,HIGH(@0+(@1))
                 	.ENDM
                 
                 	.MACRO __POINTW2FN
                 	LDI  R26,LOW(2*@0+(@1))
                 	LDI  R27,HIGH(2*@0+(@1))
                 	.ENDM
                 
                 	.MACRO __POINTD2FN
                 	LDI  R26,LOW(2*@0+(@1))
                 	LDI  R27,HIGH(2*@0+(@1))
                 	LDI  R24,BYTE3(2*@0+(@1))
                 	LDI  R25,BYTE4(2*@0+(@1))
                 	.ENDM
                 
                 	.MACRO __POINTBRM
                 	LDI  R@0,LOW(@1)
                 	.ENDM
                 
                 	.MACRO __POINTWRM
                 	LDI  R@0,LOW(@2)
                 	LDI  R@1,HIGH(@2)
                 	.ENDM
                 
                 	.MACRO __POINTBRMN
                 	LDI  R@0,LOW(@1+(@2))
                 	.ENDM
                 
                 	.MACRO __POINTWRMN
                 	LDI  R@0,LOW(@2+(@3))
                 	LDI  R@1,HIGH(@2+(@3))
                 	.ENDM
                 
                 	.MACRO __POINTWRFN
                 	LDI  R@0,LOW(@2*2+(@3))
                 	LDI  R@1,HIGH(@2*2+(@3))
                 	.ENDM
                 
                 	.MACRO __GETD1N
                 	LDI  R30,LOW(@0)
                 	LDI  R31,HIGH(@0)
                 	LDI  R22,BYTE3(@0)
                 	LDI  R23,BYTE4(@0)
                 	.ENDM
                 
                 	.MACRO __GETD2N
                 	LDI  R26,LOW(@0)
                 	LDI  R27,HIGH(@0)
                 	LDI  R24,BYTE3(@0)
                 	LDI  R25,BYTE4(@0)
                 	.ENDM
                 
                 	.MACRO __GETB1MN
                 	LDS  R30,@0+(@1)
                 	.ENDM
                 
                 	.MACRO __GETB1HMN
                 	LDS  R31,@0+(@1)
                 	.ENDM
                 
                 	.MACRO __GETW1MN
                 	LDS  R30,@0+(@1)
                 	LDS  R31,@0+(@1)+1
                 	.ENDM
                 
                 	.MACRO __GETD1MN
                 	LDS  R30,@0+(@1)
                 	LDS  R31,@0+(@1)+1
                 	LDS  R22,@0+(@1)+2
                 	LDS  R23,@0+(@1)+3
                 	.ENDM
                 
                 	.MACRO __GETBRMN
                 	LDS  R@0,@1+(@2)
                 	.ENDM
                 
                 	.MACRO __GETWRMN
                 	LDS  R@0,@2+(@3)
                 	LDS  R@1,@2+(@3)+1
                 	.ENDM
                 
                 	.MACRO __GETWRZ
                 	LDD  R@0,Z+@2
                 	LDD  R@1,Z+@2+1
                 	.ENDM
                 
                 	.MACRO __GETD2Z
                 	LDD  R26,Z+@0
                 	LDD  R27,Z+@0+1
                 	LDD  R24,Z+@0+2
                 	LDD  R25,Z+@0+3
                 	.ENDM
                 
                 	.MACRO __GETB2MN
                 	LDS  R26,@0+(@1)
                 	.ENDM
                 
                 	.MACRO __GETW2MN
                 	LDS  R26,@0+(@1)
                 	LDS  R27,@0+(@1)+1
                 	.ENDM
                 
                 	.MACRO __GETD2MN
                 	LDS  R26,@0+(@1)
                 	LDS  R27,@0+(@1)+1
                 	LDS  R24,@0+(@1)+2
                 	LDS  R25,@0+(@1)+3
                 	.ENDM
                 
                 	.MACRO __PUTB1MN
                 	STS  @0+(@1),R30
                 	.ENDM
                 
                 	.MACRO __PUTW1MN
                 	STS  @0+(@1),R30
                 	STS  @0+(@1)+1,R31
                 	.ENDM
                 
                 	.MACRO __PUTD1MN
                 	STS  @0+(@1),R30
                 	STS  @0+(@1)+1,R31
                 	STS  @0+(@1)+2,R22
                 	STS  @0+(@1)+3,R23
                 	.ENDM
                 
                 	.MACRO __PUTB1EN
                 	LDI  R26,LOW(@0+(@1))
                 	LDI  R27,HIGH(@0+(@1))
                 	RCALL __EEPROMWRB
                 	.ENDM
                 
                 	.MACRO __PUTW1EN
                 	LDI  R26,LOW(@0+(@1))
                 	LDI  R27,HIGH(@0+(@1))
                 	RCALL __EEPROMWRW
                 	.ENDM
                 
                 	.MACRO __PUTD1EN
                 	LDI  R26,LOW(@0+(@1))
                 	LDI  R27,HIGH(@0+(@1))
                 	RCALL __EEPROMWRD
                 	.ENDM
                 
                 	.MACRO __PUTBR0MN
                 	STS  @0+(@1),R0
                 	.ENDM
                 
                 	.MACRO __PUTBMRN
                 	STS  @0+(@1),R@2
                 	.ENDM
                 
                 	.MACRO __PUTWMRN
                 	STS  @0+(@1),R@2
                 	STS  @0+(@1)+1,R@3
                 	.ENDM
                 
                 	.MACRO __PUTBZR
                 	STD  Z+@1,R@0
                 	.ENDM
                 
                 	.MACRO __PUTWZR
                 	STD  Z+@2,R@0
                 	STD  Z+@2+1,R@1
                 	.ENDM
                 
                 	.MACRO __GETW1R
                 	MOV  R30,R@0
                 	MOV  R31,R@1
                 	.ENDM
                 
                 	.MACRO __GETW2R
                 	MOV  R26,R@0
                 	MOV  R27,R@1
                 	.ENDM
                 
                 	.MACRO __GETWRN
                 	LDI  R@0,LOW(@2)
                 	LDI  R@1,HIGH(@2)
                 	.ENDM
                 
                 	.MACRO __PUTW1R
                 	MOV  R@0,R30
                 	MOV  R@1,R31
                 	.ENDM
                 
                 	.MACRO __PUTW2R
                 	MOV  R@0,R26
                 	MOV  R@1,R27
                 	.ENDM
                 
                 	.MACRO __ADDWRN
                 	SUBI R@0,LOW(-@2)
                 	SBCI R@1,HIGH(-@2)
                 	.ENDM
                 
                 	.MACRO __ADDWRR
                 	ADD  R@0,R@2
                 	ADC  R@1,R@3
                 	.ENDM
                 
                 	.MACRO __SUBWRN
                 	SUBI R@0,LOW(@2)
                 	SBCI R@1,HIGH(@2)
                 	.ENDM
                 
                 	.MACRO __SUBWRR
                 	SUB  R@0,R@2
                 	SBC  R@1,R@3
                 	.ENDM
                 
                 	.MACRO __ANDWRN
                 	ANDI R@0,LOW(@2)
                 	ANDI R@1,HIGH(@2)
                 	.ENDM
                 
                 	.MACRO __ANDWRR
                 	AND  R@0,R@2
                 	AND  R@1,R@3
                 	.ENDM
                 
                 	.MACRO __ORWRN
                 	ORI  R@0,LOW(@2)
                 	ORI  R@1,HIGH(@2)
                 	.ENDM
                 
                 	.MACRO __ORWRR
                 	OR   R@0,R@2
                 	OR   R@1,R@3
                 	.ENDM
                 
                 	.MACRO __EORWRR
                 	EOR  R@0,R@2
                 	EOR  R@1,R@3
                 	.ENDM
                 
                 	.MACRO __GETWRS
                 	LDD  R@0,Y+@2
                 	LDD  R@1,Y+@2+1
                 	.ENDM
                 
                 	.MACRO __PUTBSR
                 	STD  Y+@1,R@0
                 	.ENDM
                 
                 	.MACRO __PUTWSR
                 	STD  Y+@2,R@0
                 	STD  Y+@2+1,R@1
                 	.ENDM
                 
                 	.MACRO __MOVEWRR
                 	MOV  R@0,R@2
                 	MOV  R@1,R@3
                 	.ENDM
                 
                 	.MACRO __INWR
                 	IN   R@0,@2
                 	IN   R@1,@2+1
                 	.ENDM
                 
                 	.MACRO __OUTWR
                 	OUT  @2+1,R@1
                 	OUT  @2,R@0
                 	.ENDM
                 
                 	.MACRO __CALL1MN
                 	LDS  R30,@0+(@1)
                 	LDS  R31,@0+(@1)+1
                 	ICALL
                 	.ENDM
                 
                 	.MACRO __CALL1FN
                 	LDI  R30,LOW(2*@0+(@1))
                 	LDI  R31,HIGH(2*@0+(@1))
                 	RCALL __GETW1PF
                 	ICALL
                 	.ENDM
                 
                 	.MACRO __CALL2EN
                 	PUSH R26
                 	PUSH R27
                 	LDI  R26,LOW(@0+(@1))
                 	LDI  R27,HIGH(@0+(@1))
                 	RCALL __EEPROMRDW
                 	POP  R27
                 	POP  R26
                 	ICALL
                 	.ENDM
                 
                 	.MACRO __CALL2EX
                 	SUBI R26,LOW(-@0)
                 	SBCI R27,HIGH(-@0)
                 	RCALL __EEPROMRDD
                 	ICALL
                 	.ENDM
                 
                 	.MACRO __GETW1STACK
                 	IN   R30,SPL
                 	IN   R31,SPH
                 	ADIW R30,@0+1
                 	LD   R0,Z+
                 	LD   R31,Z
                 	MOV  R30,R0
                 	.ENDM
                 
                 	.MACRO __GETD1STACK
                 	IN   R30,SPL
                 	IN   R31,SPH
                 	ADIW R30,@0+1
                 	LD   R0,Z+
                 	LD   R1,Z+
                 	LD   R22,Z
                 	MOVW R30,R0
                 	.ENDM
                 
                 	.MACRO __NBST
                 	BST  R@0,@1
                 	IN   R30,SREG
                 	LDI  R31,0x40
                 	EOR  R30,R31
                 	OUT  SREG,R30
                 	.ENDM
                 
                 
                 	.MACRO __PUTB1SN
                 	LDD  R26,Y+@0
                 	LDD  R27,Y+@0+1
                 	SUBI R26,LOW(-@1)
                 	SBCI R27,HIGH(-@1)
                 	ST   X,R30
                 	.ENDM
                 
                 	.MACRO __PUTW1SN
                 	LDD  R26,Y+@0
                 	LDD  R27,Y+@0+1
                 	SUBI R26,LOW(-@1)
                 	SBCI R27,HIGH(-@1)
                 	ST   X+,R30
                 	ST   X,R31
                 	.ENDM
                 
                 	.MACRO __PUTD1SN
                 	LDD  R26,Y+@0
                 	LDD  R27,Y+@0+1
                 	SUBI R26,LOW(-@1)
                 	SBCI R27,HIGH(-@1)
                 	RCALL __PUTDP1
                 	.ENDM
                 
                 	.MACRO __PUTB1SNS
                 	LDD  R26,Y+@0
                 	LDD  R27,Y+@0+1
                 	ADIW R26,@1
                 	ST   X,R30
                 	.ENDM
                 
                 	.MACRO __PUTW1SNS
                 	LDD  R26,Y+@0
                 	LDD  R27,Y+@0+1
                 	ADIW R26,@1
                 	ST   X+,R30
                 	ST   X,R31
                 	.ENDM
                 
                 	.MACRO __PUTD1SNS
                 	LDD  R26,Y+@0
                 	LDD  R27,Y+@0+1
                 	ADIW R26,@1
                 	RCALL __PUTDP1
                 	.ENDM
                 
                 	.MACRO __PUTB1PMN
                 	LDS  R26,@0
                 	LDS  R27,@0+1
                 	SUBI R26,LOW(-@1)
                 	SBCI R27,HIGH(-@1)
                 	ST   X,R30
                 	.ENDM
                 
                 	.MACRO __PUTW1PMN
                 	LDS  R26,@0
                 	LDS  R27,@0+1
                 	SUBI R26,LOW(-@1)
                 	SBCI R27,HIGH(-@1)
                 	ST   X+,R30
                 	ST   X,R31
                 	.ENDM
                 
                 	.MACRO __PUTD1PMN
                 	LDS  R26,@0
                 	LDS  R27,@0+1
                 	SUBI R26,LOW(-@1)
                 	SBCI R27,HIGH(-@1)
                 	RCALL __PUTDP1
                 	.ENDM
                 
                 	.MACRO __PUTB1PMNS
                 	LDS  R26,@0
                 	LDS  R27,@0+1
                 	ADIW R26,@1
                 	ST   X,R30
                 	.ENDM
                 
                 	.MACRO __PUTW1PMNS
                 	LDS  R26,@0
                 	LDS  R27,@0+1
                 	ADIW R26,@1
                 	ST   X+,R30
                 	ST   X,R31
                 	.ENDM
                 
                 	.MACRO __PUTD1PMNS
                 	LDS  R26,@0
                 	LDS  R27,@0+1
                 	ADIW R26,@1
                 	RCALL __PUTDP1
                 	.ENDM
                 
                 	.MACRO __PUTB1RN
                 	MOVW R26,R@0
                 	SUBI R26,LOW(-@1)
                 	SBCI R27,HIGH(-@1)
                 	ST   X,R30
                 	.ENDM
                 
                 	.MACRO __PUTW1RN
                 	MOVW R26,R@0
                 	SUBI R26,LOW(-@1)
                 	SBCI R27,HIGH(-@1)
                 	ST   X+,R30
                 	ST   X,R31
                 	.ENDM
                 
                 	.MACRO __PUTD1RN
                 	MOVW R26,R@0
                 	SUBI R26,LOW(-@1)
                 	SBCI R27,HIGH(-@1)
                 	RCALL __PUTDP1
                 	.ENDM
                 
                 	.MACRO __PUTB1RNS
                 	MOVW R26,R@0
                 	ADIW R26,@1
                 	ST   X,R30
                 	.ENDM
                 
                 	.MACRO __PUTW1RNS
                 	MOVW R26,R@0
                 	ADIW R26,@1
                 	ST   X+,R30
                 	ST   X,R31
                 	.ENDM
                 
                 	.MACRO __PUTD1RNS
                 	MOVW R26,R@0
                 	ADIW R26,@1
                 	RCALL __PUTDP1
                 	.ENDM
                 
                 	.MACRO __PUTB1RON
                 	MOV  R26,R@0
                 	MOV  R27,R@1
                 	SUBI R26,LOW(-@2)
                 	SBCI R27,HIGH(-@2)
                 	ST   X,R30
                 	.ENDM
                 
                 	.MACRO __PUTW1RON
                 	MOV  R26,R@0
                 	MOV  R27,R@1
                 	SUBI R26,LOW(-@2)
                 	SBCI R27,HIGH(-@2)
                 	ST   X+,R30
                 	ST   X,R31
                 	.ENDM
                 
                 	.MACRO __PUTD1RON
                 	MOV  R26,R@0
                 	MOV  R27,R@1
                 	SUBI R26,LOW(-@2)
                 	SBCI R27,HIGH(-@2)
                 	RCALL __PUTDP1
                 	.ENDM
                 
                 	.MACRO __PUTB1RONS
                 	MOV  R26,R@0
                 	MOV  R27,R@1
                 	ADIW R26,@2
                 	ST   X,R30
                 	.ENDM
                 
                 	.MACRO __PUTW1RONS
                 	MOV  R26,R@0
                 	MOV  R27,R@1
                 	ADIW R26,@2
                 	ST   X+,R30
                 	ST   X,R31
                 	.ENDM
                 
                 	.MACRO __PUTD1RONS
                 	MOV  R26,R@0
                 	MOV  R27,R@1
                 	ADIW R26,@2
                 	RCALL __PUTDP1
                 	.ENDM
                 
                 
                 	.MACRO __GETB1SX
                 	MOVW R30,R28
                 	SUBI R30,LOW(-@0)
                 	SBCI R31,HIGH(-@0)
                 	LD   R30,Z
                 	.ENDM
                 
                 	.MACRO __GETB1HSX
                 	MOVW R30,R28
                 	SUBI R30,LOW(-@0)
                 	SBCI R31,HIGH(-@0)
                 	LD   R31,Z
                 	.ENDM
                 
                 	.MACRO __GETW1SX
                 	MOVW R30,R28
                 	SUBI R30,LOW(-@0)
                 	SBCI R31,HIGH(-@0)
                 	LD   R0,Z+
                 	LD   R31,Z
                 	MOV  R30,R0
                 	.ENDM
                 
                 	.MACRO __GETD1SX
                 	MOVW R30,R28
                 	SUBI R30,LOW(-@0)
                 	SBCI R31,HIGH(-@0)
                 	LD   R0,Z+
                 	LD   R1,Z+
                 	LD   R22,Z+
                 	LD   R23,Z
                 	MOVW R30,R0
                 	.ENDM
                 
                 	.MACRO __GETB2SX
                 	MOVW R26,R28
                 	SUBI R26,LOW(-@0)
                 	SBCI R27,HIGH(-@0)
                 	LD   R26,X
                 	.ENDM
                 
                 	.MACRO __GETW2SX
                 	MOVW R26,R28
                 	SUBI R26,LOW(-@0)
                 	SBCI R27,HIGH(-@0)
                 	LD   R0,X+
                 	LD   R27,X
                 	MOV  R26,R0
                 	.ENDM
                 
                 	.MACRO __GETD2SX
                 	MOVW R26,R28
                 	SUBI R26,LOW(-@0)
                 	SBCI R27,HIGH(-@0)
                 	LD   R0,X+
                 	LD   R1,X+
                 	LD   R24,X+
                 	LD   R25,X
                 	MOVW R26,R0
                 	.ENDM
                 
                 	.MACRO __GETBRSX
                 	MOVW R30,R28
                 	SUBI R30,LOW(-@1)
                 	SBCI R31,HIGH(-@1)
                 	LD   R@0,Z
                 	.ENDM
                 
                 	.MACRO __GETWRSX
                 	MOVW R30,R28
                 	SUBI R30,LOW(-@2)
                 	SBCI R31,HIGH(-@2)
                 	LD   R@0,Z+
                 	LD   R@1,Z
                 	.ENDM
                 
                 	.MACRO __GETBRSX2
                 	MOVW R26,R28
                 	SUBI R26,LOW(-@1)
                 	SBCI R27,HIGH(-@1)
                 	LD   R@0,X
                 	.ENDM
                 
                 	.MACRO __GETWRSX2
                 	MOVW R26,R28
                 	SUBI R26,LOW(-@2)
                 	SBCI R27,HIGH(-@2)
                 	LD   R@0,X+
                 	LD   R@1,X
                 	.ENDM
                 
                 	.MACRO __LSLW8SX
                 	MOVW R30,R28
                 	SUBI R30,LOW(-@0)
                 	SBCI R31,HIGH(-@0)
                 	LD   R31,Z
                 	CLR  R30
                 	.ENDM
                 
                 	.MACRO __PUTB1SX
                 	MOVW R26,R28
                 	SUBI R26,LOW(-@0)
                 	SBCI R27,HIGH(-@0)
                 	ST   X,R30
                 	.ENDM
                 
                 	.MACRO __PUTW1SX
                 	MOVW R26,R28
                 	SUBI R26,LOW(-@0)
                 	SBCI R27,HIGH(-@0)
                 	ST   X+,R30
                 	ST   X,R31
                 	.ENDM
                 
                 	.MACRO __PUTD1SX
                 	MOVW R26,R28
                 	SUBI R26,LOW(-@0)
                 	SBCI R27,HIGH(-@0)
                 	ST   X+,R30
                 	ST   X+,R31
                 	ST   X+,R22
                 	ST   X,R23
                 	.ENDM
                 
                 	.MACRO __CLRW1SX
                 	MOVW R26,R28
                 	SUBI R26,LOW(-@0)
                 	SBCI R27,HIGH(-@0)
                 	ST   X+,R30
                 	ST   X,R30
                 	.ENDM
                 
                 	.MACRO __CLRD1SX
                 	MOVW R26,R28
                 	SUBI R26,LOW(-@0)
                 	SBCI R27,HIGH(-@0)
                 	ST   X+,R30
                 	ST   X+,R30
                 	ST   X+,R30
                 	ST   X,R30
                 	.ENDM
                 
                 	.MACRO __PUTB2SX
                 	MOVW R30,R28
                 	SUBI R30,LOW(-@0)
                 	SBCI R31,HIGH(-@0)
                 	ST   Z,R26
                 	.ENDM
                 
                 	.MACRO __PUTW2SX
                 	MOVW R30,R28
                 	SUBI R30,LOW(-@0)
                 	SBCI R31,HIGH(-@0)
                 	ST   Z+,R26
                 	ST   Z,R27
                 	.ENDM
                 
                 	.MACRO __PUTD2SX
                 	MOVW R30,R28
                 	SUBI R30,LOW(-@0)
                 	SBCI R31,HIGH(-@0)
                 	ST   Z+,R26
                 	ST   Z+,R27
                 	ST   Z+,R24
                 	ST   Z,R25
                 	.ENDM
                 
                 	.MACRO __PUTBSRX
                 	MOVW R30,R28
                 	SUBI R30,LOW(-@1)
                 	SBCI R31,HIGH(-@1)
                 	ST   Z,R@0
                 	.ENDM
                 
                 	.MACRO __PUTWSRX
                 	MOVW R30,R28
                 	SUBI R30,LOW(-@2)
                 	SBCI R31,HIGH(-@2)
                 	ST   Z+,R@0
                 	ST   Z,R@1
                 	.ENDM
                 
                 	.MACRO __PUTB1SNX
                 	MOVW R26,R28
                 	SUBI R26,LOW(-@0)
                 	SBCI R27,HIGH(-@0)
                 	LD   R0,X+
                 	LD   R27,X
                 	MOV  R26,R0
                 	SUBI R26,LOW(-@1)
                 	SBCI R27,HIGH(-@1)
                 	ST   X,R30
                 	.ENDM
                 
                 	.MACRO __PUTW1SNX
                 	MOVW R26,R28
                 	SUBI R26,LOW(-@0)
                 	SBCI R27,HIGH(-@0)
                 	LD   R0,X+
                 	LD   R27,X
                 	MOV  R26,R0
                 	SUBI R26,LOW(-@1)
                 	SBCI R27,HIGH(-@1)
                 	ST   X+,R30
                 	ST   X,R31
                 	.ENDM
                 
                 	.MACRO __PUTD1SNX
                 	MOVW R26,R28
                 	SUBI R26,LOW(-@0)
                 	SBCI R27,HIGH(-@0)
                 	LD   R0,X+
                 	LD   R27,X
                 	MOV  R26,R0
                 	SUBI R26,LOW(-@1)
                 	SBCI R27,HIGH(-@1)
                 	ST   X+,R30
                 	ST   X+,R31
                 	ST   X+,R22
                 	ST   X,R23
                 	.ENDM
                 
                 	.MACRO __MULBRR
                 	MULS R@0,R@1
                 	MOVW R30,R0
                 	.ENDM
                 
                 	.MACRO __MULBRRU
                 	MUL  R@0,R@1
                 	MOVW R30,R0
                 	.ENDM
                 
                 	.MACRO __MULBRR0
                 	MULS R@0,R@1
                 	.ENDM
                 
                 	.MACRO __MULBRRU0
                 	MUL  R@0,R@1
                 	.ENDM
                 
                 	.MACRO __MULBNWRU
                 	LDI  R26,@2
                 	MUL  R26,R@0
                 	MOVW R30,R0
                 	MUL  R26,R@1
                 	ADD  R31,R0
                 	.ENDM
                 
                 ;NAME DEFINITIONS FOR GLOBAL VARIABLES ALLOCATED TO REGISTERS
                 	.DEF _btn_flag=R5
                 	.DEF _click_flag=R4
                 	.DEF _count=R7
                 
                 	.CSEG
                 	.ORG 0x00
                 
                 ;START OF CODE MARKER
                 __START_OF_CODE:
                 
                 ;INTERRUPT VECTORS
000000 c036      	RJMP __RESET
000001 cffe      	RJMP 0x00
000002 cffd      	RJMP 0x00
000003 cffc      	RJMP 0x00
000004 cffb      	RJMP 0x00
000005 cffa      	RJMP 0x00
000006 cff9      	RJMP 0x00
000007 cff8      	RJMP 0x00
000008 cff7      	RJMP 0x00
000009 c059      	RJMP _timer0_ovf_isr
00000a cff5      	RJMP 0x00
00000b cff4      	RJMP 0x00
00000c cff3      	RJMP 0x00
00000d cff2      	RJMP 0x00
00000e cff1      	RJMP 0x00
00000f cff0      	RJMP 0x00
000010 cfef      	RJMP 0x00
000011 c24e      	RJMP _twi_int_handler
000012 cfed      	RJMP 0x00
                 
                 _progress_bar_G001:
000013 1000
000014 1c18
000015 1f1e      	.DB  0x0,0x10,0x18,0x1C,0x1E,0x1F
                 
                 ;REGISTER BIT VARIABLES INITIALIZATION
                 __REG_BIT_VARS:
000016 0000      	.DW  0x0000
                 
                 ;GLOBAL REGISTER VARIABLES INITIALIZATION
                 __REG_VARS:
000017 0000
000018 0000      	.DB  0x0,0x0,0x0,0x0
                 
                 _0x0:
000019 6548
00001a 6c6c
00001b 206f
00001c 6f57      	.DB  0x48,0x65,0x6C,0x6C,0x6F,0x20,0x57,0x6F
00001d 6c72
00001e 0064
00001f 7250
000020 7365      	.DB  0x72,0x6C,0x64,0x0,0x50,0x72,0x65,0x73
000021 2073
000022 7542
000023 7474
000024 6e6f      	.DB  0x73,0x20,0x42,0x75,0x74,0x74,0x6F,0x6E
D:\Projects AVR\LCD1602_I2C\Debug\List\LCD1602_I2C.asm(1132): warning: .cseg .db misalignment - padding zero byte
000025 0000      	.DB  0x0
                 _0x2000003:
D:\Projects AVR\LCD1602_I2C\Debug\List\LCD1602_I2C.asm(1134): warning: .cseg .db misalignment - padding zero byte
000026 0007      	.DB  0x7
                 
                 __GLOBAL_INI_TBL:
000027 0001      	.DW  0x01
000028 0002      	.DW  0x02
000029 002c      	.DW  __REG_BIT_VARS*2
                 
00002a 0004      	.DW  0x04
00002b 0004      	.DW  0x04
00002c 002e      	.DW  __REG_VARS*2
                 
00002d 000c      	.DW  0x0C
00002e 0160      	.DW  _0x6
00002f 0032      	.DW  _0x0*2
                 
000030 000d      	.DW  0x0D
000031 016c      	.DW  _0x6+12
000032 003e      	.DW  _0x0*2+12
                 
000033 0001      	.DW  0x01
000034 017b      	.DW  _twi_result
000035 004c      	.DW  _0x2000003*2
                 
                 _0xFFFFFFFF:
000036 0000      	.DW  0
                 
                 #define __GLOBAL_INI_TBL_PRESENT 1
                 
                 __RESET:
000037 94f8      	CLI
000038 27ee      	CLR  R30
000039 bbec      	OUT  EECR,R30
                 
                 ;INTERRUPT VECTORS ARE PLACED
                 ;AT THE START OF FLASH
00003a e0f1      	LDI  R31,1
00003b bffb      	OUT  GICR,R31
00003c bfeb      	OUT  GICR,R30
00003d bfe5      	OUT  MCUCR,R30
                 
                 ;CLEAR R2-R14
00003e e08d      	LDI  R24,(14-2)+1
00003f e0a2      	LDI  R26,2
000040 27bb      	CLR  R27
                 __CLEAR_REG:
000041 93ed      	ST   X+,R30
000042 958a      	DEC  R24
000043 f7e9      	BRNE __CLEAR_REG
                 
                 ;CLEAR SRAM
000044 e080      	LDI  R24,LOW(__CLEAR_SRAM_SIZE)
000045 e094      	LDI  R25,HIGH(__CLEAR_SRAM_SIZE)
000046 e6a0      	LDI  R26,__SRAM_START
                 __CLEAR_SRAM:
000047 93ed      	ST   X+,R30
000048 9701      	SBIW R24,1
000049 f7e9      	BRNE __CLEAR_SRAM
                 
                 ;GLOBAL VARIABLES INITIALIZATION
00004a e4ee      	LDI  R30,LOW(__GLOBAL_INI_TBL*2)
00004b e0f0      	LDI  R31,HIGH(__GLOBAL_INI_TBL*2)
                 __GLOBAL_INI_NEXT:
00004c 9185      	LPM  R24,Z+
00004d 9195      	LPM  R25,Z+
00004e 9700      	SBIW R24,0
00004f f061      	BREQ __GLOBAL_INI_END
000050 91a5      	LPM  R26,Z+
000051 91b5      	LPM  R27,Z+
000052 9005      	LPM  R0,Z+
000053 9015      	LPM  R1,Z+
000054 01bf      	MOVW R22,R30
000055 01f0      	MOVW R30,R0
                 __GLOBAL_INI_LOOP:
000056 9005      	LPM  R0,Z+
000057 920d      	ST   X+,R0
000058 9701      	SBIW R24,1
000059 f7e1      	BRNE __GLOBAL_INI_LOOP
00005a 01fb      	MOVW R30,R22
00005b cff0      	RJMP __GLOBAL_INI_NEXT
                 __GLOBAL_INI_END:
                 
                 ;HARDWARE STACK POINTER INITIALIZATION
00005c e5ef      	LDI  R30,LOW(__SRAM_END-__HEAP_SIZE)
00005d bfed      	OUT  SPL,R30
00005e e0e4      	LDI  R30,HIGH(__SRAM_END-__HEAP_SIZE)
00005f bfee      	OUT  SPH,R30
                 
                 ;DATA STACK POINTER INITIALIZATION
000060 e6c0      	LDI  R28,LOW(__SRAM_START+__DSTACK_SIZE)
000061 e0d1      	LDI  R29,HIGH(__SRAM_START+__DSTACK_SIZE)
                 
000062 c016      	RJMP _main
                 
                 	.ESEG
                 	.ORG 0
                 
                 	.DSEG
                 	.ORG 0x160
                 
                 	.CSEG
                 ;/*******************************************************
                 ;This program was created by the
                 ;CodeWizardAVR V3.12 Advanced
                 ;Automatic Program Generator
                 ;© Copyright 1998-2014 Pavel Haiduc, HP InfoTech s.r.l.
                 ;http://www.hpinfotech.com
                 ;
                 ;Project :
                 ;Version :
                 ;Date    : 29.05.2021
                 ;Author  :
                 ;Company :
                 ;Comments:
                 ;
                 ;
                 ;Chip type               : ATmega8A
                 ;Program type            : Application
                 ;AVR Core Clock frequency: 8,000000 MHz
                 ;Memory model            : Small
                 ;External RAM size       : 0
                 ;Data Stack size         : 256
                 ;*******************************************************/
                 ;
                 ;#include <mega8.h>
                 	#ifndef __SLEEP_DEFINED__
                 	#define __SLEEP_DEFINED__
                 	.EQU __se_bit=0x80
                 	.EQU __sm_mask=0x70
                 	.EQU __sm_powerdown=0x20
                 	.EQU __sm_powersave=0x30
                 	.EQU __sm_standby=0x60
                 	.EQU __sm_ext_standby=0x70
                 	.EQU __sm_adc_noise_red=0x10
                 	.SET power_ctrl_reg=mcucr
                 	#endif
                 ;#include <delay.h>
                 ;#include "hd44780.h"
                 ;
                 ;// Declare your global variables here
                 ;
                 ;unsigned char btn_flag = 0;
                 ;unsigned char click_flag = 0;
                 ;unsigned char count = 0;
                 ;
                 ;// Timer 0 overflow interrupt service routine
                 ;interrupt [TIM0_OVF] void timer0_ovf_isr(void)
                 ; 0000 0024 {
                 
                 	.CSEG
                 _timer0_ovf_isr:
                 ; .FSTART _timer0_ovf_isr
000063 93ea      	ST   -Y,R30
000064 b7ef      	IN   R30,SREG
000065 93ea      	ST   -Y,R30
                 ; 0000 0025 // Reinitialize Timer 0 value
                 ; 0000 0026 TCNT0=0xB2;
000066 ebe2      	LDI  R30,LOW(178)
000067 bfe2      	OUT  0x32,R30
                 ; 0000 0027 // Place your code here
                 ; 0000 0028 
                 ; 0000 0029  if (count == 19)
000068 e1e3      	LDI  R30,LOW(19)
000069 15e7      	CP   R30,R7
00006a f449      	BRNE _0x3
                 ; 0000 002A         {
                 ; 0000 002B            btn_flag = 1;
00006b e0e1      	LDI  R30,LOW(1)
00006c 2e5e      	MOV  R5,R30
                 ; 0000 002C            count = 0;
00006d 2477      	CLR  R7
                 ; 0000 002D            if (click_flag)
00006e 2044      	TST  R4
00006f f011      	BREQ _0x4
                 ; 0000 002E             {
                 ; 0000 002F                 click_flag=0;
000070 2444      	CLR  R4
                 ; 0000 0030             }
                 ; 0000 0031             else
000071 c002      	RJMP _0x5
                 _0x4:
                 ; 0000 0032             {
                 ; 0000 0033                 click_flag=1;
000072 e0e1      	LDI  R30,LOW(1)
000073 2e4e      	MOV  R4,R30
                 ; 0000 0034             }
                 _0x5:
                 ; 0000 0035 
                 ; 0000 0036         }
                 ; 0000 0037     count++;
                 _0x3:
000074 9473      	INC  R7
                 ; 0000 0038 
                 ; 0000 0039 }
000075 91e9      	LD   R30,Y+
000076 bfef      	OUT  SREG,R30
000077 91e9      	LD   R30,Y+
000078 9518      	RETI
                 ; .FEND
                 ;
                 ;// SPI functions
                 ;#include <spi.h>
                 ;
                 ;// TWI functions
                 ;#include <twi.h>
                 ;
                 ;void main(void)
                 ; 0000 0042 {
                 _main:
                 ; .FSTART _main
                 ; 0000 0043 // Declare your local variables here
                 ; 0000 0044 
                 ; 0000 0045 // Input/Output Ports initialization
                 ; 0000 0046 // Port B initialization
                 ; 0000 0047 // Function: Bit7=In Bit6=In Bit5=Out Bit4=In Bit3=Out Bit2=Out Bit1=Out Bit0=In
                 ; 0000 0048 DDRB=(0<<DDB7) | (0<<DDB6) | (1<<DDB5) | (0<<DDB4) | (1<<DDB3) | (1<<DDB2) | (1<<DDB1) | (0<<DDB0);
000079 e2ee      	LDI  R30,LOW(46)
00007a bbe7      	OUT  0x17,R30
                 ; 0000 0049 // State: Bit7=T Bit6=T Bit5=0 Bit4=T Bit3=0 Bit2=0 Bit1=0 Bit0=T
                 ; 0000 004A PORTB=(0<<PORTB7) | (0<<PORTB6) | (0<<PORTB5) | (0<<PORTB4) | (0<<PORTB3) | (0<<PORTB2) | (0<<PORTB1) | (0<<PORTB0);
00007b e0e0      	LDI  R30,LOW(0)
00007c bbe8      	OUT  0x18,R30
                 ; 0000 004B 
                 ; 0000 004C // Port C initialization
                 ; 0000 004D // Function: Bit6=In Bit5=Out Bit4=Out Bit3=In Bit2=In Bit1=In Bit0=In
                 ; 0000 004E DDRC=(0<<DDC6) | (1<<DDC5) | (1<<DDC4) | (0<<DDC3) | (0<<DDC2) | (0<<DDC1) | (0<<DDC0);
00007d e3e0      	LDI  R30,LOW(48)
00007e bbe4      	OUT  0x14,R30
                 ; 0000 004F // State: Bit6=T Bit5=1 Bit4=1 Bit3=T Bit2=T Bit1=T Bit0=T
                 ; 0000 0050 PORTC=(0<<PORTC6) | (1<<PORTC5) | (1<<PORTC4) | (0<<PORTC3) | (0<<PORTC2) | (0<<PORTC1) | (0<<PORTC0);
00007f bbe5      	OUT  0x15,R30
                 ; 0000 0051 
                 ; 0000 0052 // Port D initialization
                 ; 0000 0053 // Function: Bit7=In Bit6=In Bit5=In Bit4=In Bit3=In Bit2=In Bit1=In Bit0=In
                 ; 0000 0054 DDRD=(0<<DDD7) | (0<<DDD6) | (0<<DDD5) | (0<<DDD4) | (0<<DDD3) | (0<<DDD2) | (0<<DDD1) | (0<<DDD0);
000080 e0e0      	LDI  R30,LOW(0)
000081 bbe1      	OUT  0x11,R30
                 ; 0000 0055 // State: Bit7=P Bit6=P Bit5=P Bit4=P Bit3=P Bit2=P Bit1=P Bit0=P
                 ; 0000 0056 PORTD=(1<<PORTD7) | (1<<PORTD6) | (1<<PORTD5) | (1<<PORTD4) | (1<<PORTD3) | (1<<PORTD2) | (1<<PORTD1) | (1<<PORTD0);
000082 efef      	LDI  R30,LOW(255)
000083 bbe2      	OUT  0x12,R30
                 ; 0000 0057 
                 ; 0000 0058 // Timer/Counter 0 initialization
                 ; 0000 0059 // Clock source: System Clock
                 ; 0000 005A // Clock value: 7,813 kHz
                 ; 0000 005B TCCR0=(1<<CS02) | (0<<CS01) | (1<<CS00);
000084 e0e5      	LDI  R30,LOW(5)
000085 bfe3      	OUT  0x33,R30
                 ; 0000 005C TCNT0=0xB2;
000086 ebe2      	LDI  R30,LOW(178)
000087 bfe2      	OUT  0x32,R30
                 ; 0000 005D 
                 ; 0000 005E // Timer/Counter 1 initialization
                 ; 0000 005F // Clock source: System Clock
                 ; 0000 0060 // Clock value: 8000,000 kHz
                 ; 0000 0061 // Mode: CTC top=OCR1A
                 ; 0000 0062 // OC1A output: Disconnected
                 ; 0000 0063 // OC1B output: Disconnected
                 ; 0000 0064 // Noise Canceler: Off
                 ; 0000 0065 // Input Capture on Falling Edge
                 ; 0000 0066 // Timer Period: 1,1364 ms
                 ; 0000 0067 // Timer1 Overflow Interrupt: Off
                 ; 0000 0068 // Input Capture Interrupt: Off
                 ; 0000 0069 // Compare A Match Interrupt: Off
                 ; 0000 006A // Compare B Match Interrupt: Off
                 ; 0000 006B TCCR1A=(0<<COM1A1) | (1<<COM1A0) | (0<<COM1B1) | (0<<COM1B0) | (0<<WGM11) | (0<<WGM10);
000088 e4e0      	LDI  R30,LOW(64)
000089 bdef      	OUT  0x2F,R30
                 ; 0000 006C TCCR1B=(0<<ICNC1) | (0<<ICES1) | (0<<WGM13) | (1<<WGM12) | (0<<CS12) | (0<<CS11) | (1<<CS10);
00008a e0e9      	LDI  R30,LOW(9)
00008b bdee      	OUT  0x2E,R30
                 ; 0000 006D TCNT1H=0xDC;
00008c edec      	LDI  R30,LOW(220)
00008d bded      	OUT  0x2D,R30
                 ; 0000 006E TCNT1L=0x7D;
00008e e7ed      	LDI  R30,LOW(125)
00008f bdec      	OUT  0x2C,R30
                 ; 0000 006F ICR1H=0x00;
000090 e0e0      	LDI  R30,LOW(0)
000091 bde7      	OUT  0x27,R30
                 ; 0000 0070 ICR1L=0x00;
000092 bde6      	OUT  0x26,R30
                 ; 0000 0071 OCR1AH=0x23;
000093 e2e3      	LDI  R30,LOW(35)
000094 bdeb      	OUT  0x2B,R30
                 ; 0000 0072 OCR1AL=0x82;
000095 e8e2      	LDI  R30,LOW(130)
000096 bdea      	OUT  0x2A,R30
                 ; 0000 0073 OCR1BH=0x00;
000097 e0e0      	LDI  R30,LOW(0)
000098 bde9      	OUT  0x29,R30
                 ; 0000 0074 OCR1BL=0x00;
000099 bde8      	OUT  0x28,R30
                 ; 0000 0075 
                 ; 0000 0076 // Timer/Counter 2 initialization
                 ; 0000 0077 // Clock source: System Clock
                 ; 0000 0078 // Clock value: Timer2 Stopped
                 ; 0000 0079 // Mode: Normal top=0xFF
                 ; 0000 007A // OC2 output: Disconnected
                 ; 0000 007B ASSR=0<<AS2;
00009a bde2      	OUT  0x22,R30
                 ; 0000 007C TCCR2=(0<<PWM2) | (0<<COM21) | (0<<COM20) | (0<<CTC2) | (0<<CS22) | (0<<CS21) | (0<<CS20);
00009b bde5      	OUT  0x25,R30
                 ; 0000 007D TCNT2=0x00;
00009c bde4      	OUT  0x24,R30
                 ; 0000 007E OCR2=0x00;
00009d bde3      	OUT  0x23,R30
                 ; 0000 007F 
                 ; 0000 0080 // Timer(s)/Counter(s) Interrupt(s) initialization
                 ; 0000 0081 TIMSK=(0<<OCIE2) | (0<<TOIE2) | (0<<TICIE1) | (0<<OCIE1A) | (0<<OCIE1B) | (0<<TOIE1) | (1<<TOIE0);
00009e e0e1      	LDI  R30,LOW(1)
00009f bfe9      	OUT  0x39,R30
                 ; 0000 0082 
                 ; 0000 0083 // External Interrupt(s) initialization
                 ; 0000 0084 // INT0: Off
                 ; 0000 0085 // INT1: Off
                 ; 0000 0086 MCUCR=(0<<ISC11) | (0<<ISC10) | (0<<ISC01) | (0<<ISC00);
0000a0 e0e0      	LDI  R30,LOW(0)
0000a1 bfe5      	OUT  0x35,R30
                 ; 0000 0087 
                 ; 0000 0088 // USART initialization
                 ; 0000 0089 // USART disabled
                 ; 0000 008A UCSRB=(0<<RXCIE) | (0<<TXCIE) | (0<<UDRIE) | (0<<RXEN) | (0<<TXEN) | (0<<UCSZ2) | (0<<RXB8) | (0<<TXB8);
0000a2 b9ea      	OUT  0xA,R30
                 ; 0000 008B 
                 ; 0000 008C // Analog Comparator initialization
                 ; 0000 008D // Analog Comparator: Off
                 ; 0000 008E // The Analog Comparator's positive input is
                 ; 0000 008F // connected to the AIN0 pin
                 ; 0000 0090 // The Analog Comparator's negative input is
                 ; 0000 0091 // connected to the AIN1 pin
                 ; 0000 0092 ACSR=(1<<ACD) | (0<<ACBG) | (0<<ACO) | (0<<ACI) | (0<<ACIE) | (0<<ACIC) | (0<<ACIS1) | (0<<ACIS0);
0000a3 e8e0      	LDI  R30,LOW(128)
0000a4 b9e8      	OUT  0x8,R30
                 ; 0000 0093 SFIOR=(0<<ACME);
0000a5 e0e0      	LDI  R30,LOW(0)
0000a6 bfe0      	OUT  0x30,R30
                 ; 0000 0094 
                 ; 0000 0095 // ADC initialization
                 ; 0000 0096 // ADC disabled
                 ; 0000 0097 ADCSRA=(0<<ADEN) | (0<<ADSC) | (0<<ADFR) | (0<<ADIF) | (0<<ADIE) | (0<<ADPS2) | (0<<ADPS1) | (0<<ADPS0);
0000a7 b9e6      	OUT  0x6,R30
                 ; 0000 0098 
                 ; 0000 0099 // SPI initialization
                 ; 0000 009A // SPI Type: Master
                 ; 0000 009B // SPI Clock Rate: 500,000 kHz
                 ; 0000 009C // SPI Clock Phase: Cycle Start
                 ; 0000 009D // SPI Clock Polarity: Low
                 ; 0000 009E // SPI Data Order: MSB First
                 ; 0000 009F SPCR=(0<<SPIE) | (1<<SPE) | (0<<DORD) | (1<<MSTR) | (0<<CPOL) | (0<<CPHA) | (0<<SPR1) | (1<<SPR0);
0000a8 e5e1      	LDI  R30,LOW(81)
0000a9 b9ed      	OUT  0xD,R30
                 ; 0000 00A0 SPSR=(0<<SPI2X);
0000aa e0e0      	LDI  R30,LOW(0)
0000ab b9ee      	OUT  0xE,R30
                 ; 0000 00A1 
                 ; 0000 00A2 // TWI initialization
                 ; 0000 00A3 // Mode: TWI Master
                 ; 0000 00A4 // Bit Rate: 100 kHz
                 ; 0000 00A5 twi_master_init(100);
0000ac e6a4      	LDI  R26,LOW(100)
0000ad e0b0      	LDI  R27,0
0000ae d127      	RCALL _twi_master_init
                 ; 0000 00A6 
                 ; 0000 00A7 // Global enable interrupts
                 ; 0000 00A8 #asm("sei")
0000af 9478      	sei
                 ; 0000 00A9 
                 ; 0000 00AA lcd_init();
0000b0 d11b      	RCALL _lcd_init
                 ; 0000 00AB lcd_goto(1,2);
0000b1 e0e1      	LDI  R30,LOW(1)
0000b2 93ea      	ST   -Y,R30
0000b3 e0a2      	LDI  R26,LOW(2)
0000b4 d06a      	RCALL _lcd_goto
                 ; 0000 00AC lcd_puts("Hello World");
                +
0000b5 e6a0     +LDI R26 , LOW ( _0x6 + ( 0 ) )
0000b6 e0b1     +LDI R27 , HIGH ( _0x6 + ( 0 ) )
                 	__POINTW2MN _0x6,0
0000b7 d0a2      	RCALL _lcd_puts
                 ; 0000 00AD 
                 ; 0000 00AE while (1)
                 _0x7:
                 ; 0000 00AF       {
                 ; 0000 00B0       // Place your code here
                 ; 0000 00B1       if (!PIND.0 && btn_flag)
0000b8 9980      	SBIC 0x10,0
0000b9 c002      	RJMP _0xB
0000ba 2055      	TST  R5
0000bb f409      	BRNE _0xC
                 _0xB:
0000bc c009      	RJMP _0xA
                 _0xC:
                 ; 0000 00B2           {
                 ; 0000 00B3             if (!click_flag)
0000bd 2044      	TST  R4
0000be f439      	BRNE _0xD
                 ; 0000 00B4             {
                 ; 0000 00B5                 btn_flag=0;
0000bf 2455      	CLR  R5
                 ; 0000 00B6                 lcd_goto(2,2);
0000c0 d302      	RCALL SUBOPT_0x0
0000c1 e0a2      	LDI  R26,LOW(2)
0000c2 d05c      	RCALL _lcd_goto
                 ; 0000 00B7                 lcd_puts("Press Button");
                +
0000c3 e6ac     +LDI R26 , LOW ( _0x6 + ( 12 ) )
0000c4 e0b1     +LDI R27 , HIGH ( _0x6 + ( 12 ) )
                 	__POINTW2MN _0x6,12
0000c5 d094      	RCALL _lcd_puts
                 ; 0000 00B8             }
                 ; 0000 00B9 
                 ; 0000 00BA           }
                 _0xD:
                 ; 0000 00BB 
                 ; 0000 00BC       }
                 _0xA:
0000c6 cff1      	RJMP _0x7
                 ; 0000 00BD }
                 _0xE:
0000c7 cfff      	RJMP _0xE
                 ; .FEND
                 
                 	.DSEG
                 _0x6:
000160           	.BYTE 0x19
                 ;//------------------------------------------------------
                 ;/* File:       Library for HD44780 compatible displays  */
                 ;/* Version:	   v2.01  						 			*/
                 ;//------------------------------------------------------
                 ;
                 ;#include <delay.h>
                 ;#include "hd44780.h"
                 ;
                 ;/*!	\brief	Macro-definitions. */
                 ;#define BIT(n)						(1u << (n))
                 ;#define SET(x,n)           			((x) |= BIT(n))
                 ;#define CLR(x,n)  		  			((x) &= ~BIT(n))
                 ;#define GET(x,n)   		  			(((x) & BIT(n)) ? 1u : 0u)
                 ;
                 ;
                 ;
                 ;#define ENABLE_CYCLE_TIME			1u	/* Minimal value ~ 1us */
                 ;#define AC_UPDATE_TIME				1u	/* Minimal value ~ 4us */
                 ;
                 ;#define CMD 0u // command
                 ;#define DTA 1u // data
                 ;
                 ;#if (USE_PROGRESS_BAR)
                 ;/*!	\brief	Progress bar definitions. */
                 ;#define CGROM_PROGRESS_BAR_SIZE		6u
                 ;#define FULL_LOAD					5u
                 ;#define EMPTY_LOAD					0u
                 ;#define EMPTY_ROW					0x00u /* xxx00000 */
                 ;
                 ;static const uint8_t progress_bar[CGROM_PROGRESS_BAR_SIZE] = {0x00u,0x10u,0x18u,0x1Cu,0x1Eu,0x1Fu};
                 ;static uint8_t current_bar_pixel;
                 ;static uint8_t current_cell_load;
                 ;static void lcd_initbar(void);
                 ;#endif
                 ;
                 ;/*!	\brief	Low-level functions. */
                 ;static void lcd_config(uint8_t param);
                 ;static void lcd_write(uint8_t data, uint8_t mode);
                 ;static void lcd_10us_delay(volatile uint32_t us);
                 ;static uint32_t lcd_pow10(uint8_t n);
                 ;
                 ;
                 ;/*!	\brief	Creates delay multiples of 10us. */
                 ;static void lcd_10us_delay(volatile uint32_t us)
                 ; 0001 002D {
                 
                 	.CSEG
                 _lcd_10us_delay_G001:
                 ; .FSTART _lcd_10us_delay_G001
                 ; 0001 002E 	/* Ñonversion to us */
                 ; 0001 002F 	us *= MCU_FREQ_VALUE;
0000c8 d36c      	RCALL __PUTPARD2
                 ;	us -> Y+0
0000c9 d2fc      	RCALL SUBOPT_0x1
                +
0000ca e0a8     +LDI R26 , LOW ( 0x8 )
0000cb e0b0     +LDI R27 , HIGH ( 0x8 )
0000cc e080     +LDI R24 , BYTE3 ( 0x8 )
0000cd e090     +LDI R25 , BYTE4 ( 0x8 )
                 	__GETD2N 0x8
0000ce d324      	RCALL __MULD12U
0000cf d2f8      	RCALL SUBOPT_0x2
                 ; 0001 0030 	/* Wait */
                 ; 0001 0031 	while (us > 0u)
                 _0x20003:
0000d0 d35a      	RCALL __GETD2S0
0000d1 d368      	RCALL __CPD02
0000d2 f410      	BRSH _0x20005
                 ; 0001 0032 	{
                 ; 0001 0033 		us--;
0000d3 d2f6      	RCALL SUBOPT_0x3
                 ; 0001 0034 	}
0000d4 cffb      	RJMP _0x20003
                 _0x20005:
                 ; 0001 0035 }
0000d5 9624      	ADIW R28,4
0000d6 9508      	RET
                 ; .FEND
                 ;
                 ;
                 ;/*!	\brief	Send data/commands to the display. */
                 ;static void lcd_write(uint8_t data, uint8_t mode)
                 ; 0001 003A {/* Low level function. */
                 _lcd_write_G001:
                 ; .FSTART _lcd_write_G001
                 ; 0001 003B 
                 ; 0001 003C 	uint8_t LCD_data[4];
                 ; 0001 003D 
                 ; 0001 003E 	LCD_data[0]=(data & 0xF0)|(mode<<LCD_RS)|(1<<LCD_E);
0000d7 93aa      	ST   -Y,R26
0000d8 9724      	SBIW R28,4
                 ;	data -> Y+5
                 ;	mode -> Y+4
                 ;	LCD_data -> Y+0
0000d9 81ed      	LDD  R30,Y+5
0000da 7fe0      	ANDI R30,LOW(0xF0)
0000db 81ac      	LDD  R26,Y+4
0000dc 2bea      	OR   R30,R26
0000dd d2f1      	RCALL SUBOPT_0x4
                 ; 0001 003F     LCD_data[1]=LCD_data[0]&~(1<<LCD_E);
                 ; 0001 0040 	LCD_data[2]=(data<<4)|(mode<<LCD_RS)|(1<<LCD_E);
0000de 81ed      	LDD  R30,Y+5
0000df 95e2      	SWAP R30
0000e0 7fe0      	ANDI R30,0xF0
0000e1 81ac      	LDD  R26,Y+4
0000e2 2bea      	OR   R30,R26
0000e3 60e4      	ORI  R30,4
0000e4 83ea      	STD  Y+2,R30
                 ; 0001 0041     LCD_data[3]=LCD_data[02]&~(1<<LCD_E);;
0000e5 7feb      	ANDI R30,0xFB
0000e6 83eb      	STD  Y+3,R30
                 ; 0001 0042     twi_master_trans(I2C_ADR_PCF8574,LCD_data,4,0,0);
0000e7 d2ec      	RCALL SUBOPT_0x5
0000e8 e0e4      	LDI  R30,LOW(4)
0000e9 93ea      	ST   -Y,R30
0000ea d2f0      	RCALL SUBOPT_0x6
                 ; 0001 0043 
                 ; 0001 0044 
                 ; 0001 0045 	lcd_10us_delay(BUSY_CYCLE_TIME);
                 ; 0001 0046 }
0000eb 9626      	ADIW R28,6
0000ec 9508      	RET
                 ; .FEND
                 ;
                 ;/*!	\brief	Initializing by instruction. 4-bit interface initialization. */
                 ;static void lcd_config(uint8_t param)
                 ; 0001 004A {/* Low level function. */
                 _lcd_config_G001:
                 ; .FSTART _lcd_config_G001
                 ; 0001 004B 	uint8_t LCD_data[2];
                 ; 0001 004C 
                 ; 0001 004D 	/* Send commands to LCD. */
                 ; 0001 004E 
                 ; 0001 004F 	LCD_data[0]=(param & 0xF0)|(CMD<<LCD_RS)|(1<<LCD_E);// Change 8-bit interface to 4-bit interface
0000ed 93aa      	ST   -Y,R26
0000ee 9722      	SBIW R28,2
                 ;	param -> Y+2
                 ;	LCD_data -> Y+0
0000ef 81ea      	LDD  R30,Y+2
0000f0 7fe0      	ANDI R30,LOW(0xF0)
0000f1 d2dd      	RCALL SUBOPT_0x4
                 ; 0001 0050     LCD_data[1]=LCD_data[0] &~(1<<LCD_E);
                 ; 0001 0051 	twi_master_trans(I2C_ADR_PCF8574,LCD_data,2,0,0);
0000f2 d2e1      	RCALL SUBOPT_0x5
0000f3 d2cf      	RCALL SUBOPT_0x0
0000f4 d2e6      	RCALL SUBOPT_0x6
                 ; 0001 0052 
                 ; 0001 0053 	lcd_10us_delay(BUSY_CYCLE_TIME);
                 ; 0001 0054 
                 ; 0001 0055 
                 ; 0001 0056 	LCD_data[0]=(param & 0xF0)|(CMD<<LCD_RS)|(1<<LCD_E);/* DB7 to DB4 of the "Function set" instruction is written twice. * ...
0000f5 81ea      	LDD  R30,Y+2
0000f6 7fe0      	ANDI R30,LOW(0xF0)
0000f7 d2d7      	RCALL SUBOPT_0x4
                 ; 0001 0057     LCD_data[1]=LCD_data[0] &~(1<<LCD_E);
                 ; 0001 0058 	twi_master_trans(I2C_ADR_PCF8574,LCD_data,2,0,0);
0000f8 d2db      	RCALL SUBOPT_0x5
0000f9 d2c9      	RCALL SUBOPT_0x0
0000fa d2e0      	RCALL SUBOPT_0x6
                 ; 0001 0059 
                 ; 0001 005A 	lcd_10us_delay(BUSY_CYCLE_TIME);
                 ; 0001 005B 
                 ; 0001 005C 
                 ; 0001 005D 	LCD_data[0]=(param<<4)|(CMD<<LCD_RS)|(1<<LCD_E); // 4-bit, two lines, 5x8 pixel
0000fb 81ea      	LDD  R30,Y+2
0000fc 95e2      	SWAP R30
0000fd 7fe0      	ANDI R30,0xF0
0000fe d2d0      	RCALL SUBOPT_0x4
                 ; 0001 005E     LCD_data[1]=LCD_data[0] &~(1<<LCD_E);;
                 ; 0001 005F     twi_master_trans(I2C_ADR_PCF8574,LCD_data,2,0,0);
0000ff d2d4      	RCALL SUBOPT_0x5
000100 d2c2      	RCALL SUBOPT_0x0
000101 d2d9      	RCALL SUBOPT_0x6
                 ; 0001 0060 
                 ; 0001 0061 	lcd_10us_delay(BUSY_CYCLE_TIME);
                 ; 0001 0062 	/* Note: The number of display lines and character font cannot be changed after this point. */
                 ; 0001 0063 }
000102 c0f9      	RJMP _0x2060003
                 ; .FEND
                 ;
                 ;							//-----------------------------//
                 ;							/*         LCDlib API          */
                 ;							//-----------------------------//
                 ;
                 ;/*!	\details	Clear display writes space code 20H into all DDRAM addresses.
                 ; * 				It then sets DDRAM address 0 into the address counter,
                 ; * 				and returns the display to its original status if it was shifted.
                 ; * 				In other words, the display disappears and the cursor
                 ; * 				or blinking goes to the left edge of the display (in the first line if 2 lines are displayed).
                 ; * 				It also sets I/D to 1 (increment mode) in entry mode (S of entry mode does not change). */
                 ;void lcd_clrscr(void)
                 ; 0001 0070 {
                 _lcd_clrscr:
                 ; .FSTART _lcd_clrscr
                 ; 0001 0071 
                 ; 0001 0072 	/* Clear screen */
                 ; 0001 0073 	lcd_write(0x01u, CMD);
000103 e0e1      	LDI  R30,LOW(1)
000104 c001      	RJMP _0x2060006
                 ; 0001 0074 	lcd_10us_delay(CLRSCR_CYCLE_TIME);
                 ; 0001 0075 
                 ; 0001 0076 }
                 ; .FEND
                 ;
                 ;/*!	\details	"Return home" sets DDRAM address 0 into the address counter,
                 ; * 				and returns the display to its original status if it was shifted.
                 ; * 				The DDRAM contents do not change.
                 ; * 				The cursor or blinking go to the left edge of the display
                 ; * 				(in the first line if 2 lines are displayed). */
                 ;void lcd_return(void)
                 ; 0001 007E {
                 _lcd_return:
                 ; .FSTART _lcd_return
                 ; 0001 007F 	/* Return home */
                 ; 0001 0080 	lcd_write(0x02u, CMD);
000105 e0e2      	LDI  R30,LOW(2)
                 _0x2060006:
000106 93ea      	ST   -Y,R30
000107 d2de      	RCALL SUBOPT_0x7
                 ; 0001 0081 	/* Busy delay */
                 ; 0001 0082 	lcd_10us_delay(RETHOME_CYCLE_TIME);
                +
000108 eca8     +LDI R26 , LOW ( 0xC8 )
000109 e0b0     +LDI R27 , HIGH ( 0xC8 )
00010a e080     +LDI R24 , BYTE3 ( 0xC8 )
00010b e090     +LDI R25 , BYTE4 ( 0xC8 )
                 	__GETD2N 0xC8
00010c dfbb      	RCALL _lcd_10us_delay_G001
                 ; 0001 0083 
                 ; 0001 0084 }
00010d 9508      	RET
                 ; .FEND
                 ;
                 ;/*!	\details	lcd_scroll shifts the display to the right or left without writing or reading display data.
                 ; * 				This function is used to correct or search the display.
                 ; *	\note		The first and second line displays will shift at the same time. */
                 ;void lcd_scroll(uint8_t direction)
                 ; 0001 008A {
                 ; 0001 008B 
                 ; 0001 008C 	/* Scroll display */
                 ; 0001 008D 	switch (direction)
                 ;	direction -> Y+0
                 ; 0001 008E 	{
                 ; 0001 008F 	/* To left */
                 ; 0001 0090 		case LEFT  :
                 ; 0001 0091 			lcd_write(0x18u,CMD);
                 ; 0001 0092 			break;
                 ; 0001 0093 
                 ; 0001 0094 		/* To right */
                 ; 0001 0095 		case RIGHT :
                 ; 0001 0096 			lcd_write(0x1Cu, CMD);
                 ; 0001 0097 			break;
                 ; 0001 0098 
                 ; 0001 0099 		default:
                 ; 0001 009A 			/* Ignore this command */
                 ; 0001 009B 			break;
                 ; 0001 009C 	}
                 ; 0001 009D }
                 ;
                 ;/*!	\details	"Cursor shift" shifts the cursor position to the right or left,
                 ; * 				without writing or reading display data.
                 ; * 				This function is used to correct or search the display.
                 ; * 				In a 2-line display, the cursor moves to the second line
                 ; * 				when it passes the 40th digit of the first line. */
                 ;void cursor_shift(uint8_t direction)
                 ; 0001 00A5 {
                 _cursor_shift:
                 ; .FSTART _cursor_shift
                 ; 0001 00A6 
                 ; 0001 00A7 	/* Shift cursor */
                 ; 0001 00A8 	switch (direction)
00010e 93aa      	ST   -Y,R26
                 ;	direction -> Y+0
00010f 81e8      	LD   R30,Y
000110 e0f0      	LDI  R31,0
                 ; 0001 00A9 	{
                 ; 0001 00AA 		/* To left */
                 ; 0001 00AB 		case LEFT  :
000111 33ec      	CPI  R30,LOW(0x3C)
000112 e0a0      	LDI  R26,HIGH(0x3C)
000113 07fa      	CPC  R31,R26
000114 f419      	BRNE _0x2000F
                 ; 0001 00AC 			lcd_write(0x10u, CMD);
000115 e1e0      	LDI  R30,LOW(16)
000116 d2d1      	RCALL SUBOPT_0x8
                 ; 0001 00AD 			break;
000117 c006      	RJMP _0x2000E
                 ; 0001 00AE 
                 ; 0001 00AF 		/* To right */
                 ; 0001 00B0 		case RIGHT :
                 _0x2000F:
000118 33ee      	CPI  R30,LOW(0x3E)
000119 e0a0      	LDI  R26,HIGH(0x3E)
00011a 07fa      	CPC  R31,R26
00011b f411      	BRNE _0x20011
                 ; 0001 00B1 			lcd_write(0x14u, CMD);
00011c e1e4      	LDI  R30,LOW(20)
00011d d2ca      	RCALL SUBOPT_0x8
                 ; 0001 00B2 			break;
                 ; 0001 00B3 
                 ; 0001 00B4 		default:
                 _0x20011:
                 ; 0001 00B5 			/* Ignore this command */
                 ; 0001 00B6 			break;
                 ; 0001 00B7 	}
                 _0x2000E:
                 ; 0001 00B8 }
00011e c039      	RJMP _0x2060005
                 ; .FEND
                 ;
                 ;/*!	\details	Go to the specified (DDRAM/CGRAM) memory address.*/
                 ;void lcd_goto(uint8_t line, uint8_t address)
                 ; 0001 00BC {
                 _lcd_goto:
                 ; .FSTART _lcd_goto
                 ; 0001 00BD 	/* Set DDRAM/CGRAM address. */
                 ; 0001 00BE 	switch (line)
00011f 93aa      	ST   -Y,R26
                 ;	line -> Y+1
                 ;	address -> Y+0
000120 81e9      	LDD  R30,Y+1
000121 e0f0      	LDI  R31,0
                 ; 0001 00BF 	{
                 ; 0001 00C0 		/* Set DDRAM address. */
                 ; 0001 00C1 		case LCD_1st_LINE: lcd_write(0x80u | START_ADDRESS_1st_LINE | address, CMD); break;
000122 30e1      	CPI  R30,LOW(0x1)
000123 e0a0      	LDI  R26,HIGH(0x1)
000124 07fa      	CPC  R31,R26
000125 f421      	BRNE _0x20015
000126 81e8      	LD   R30,Y
000127 68e0      	ORI  R30,0x80
000128 d2bf      	RCALL SUBOPT_0x8
000129 c01f      	RJMP _0x20014
                 ; 0001 00C2 		case LCD_2nd_LINE: lcd_write(0x80u | START_ADDRESS_2nd_LINE | address, CMD); break;
                 _0x20015:
00012a 30e2      	CPI  R30,LOW(0x2)
00012b e0a0      	LDI  R26,HIGH(0x2)
00012c 07fa      	CPC  R31,R26
00012d f421      	BRNE _0x20016
00012e 81e8      	LD   R30,Y
00012f 6ce0      	ORI  R30,LOW(0xC0)
000130 d2b7      	RCALL SUBOPT_0x8
000131 c017      	RJMP _0x20014
                 ; 0001 00C3 		case LCD_3rd_LINE: lcd_write(0x80u | START_ADDRESS_3rd_LINE | address, CMD); break;
                 _0x20016:
000132 30e3      	CPI  R30,LOW(0x3)
000133 e0a0      	LDI  R26,HIGH(0x3)
000134 07fa      	CPC  R31,R26
000135 f421      	BRNE _0x20017
000136 81e8      	LD   R30,Y
000137 69e0      	ORI  R30,LOW(0x90)
000138 d2af      	RCALL SUBOPT_0x8
000139 c00f      	RJMP _0x20014
                 ; 0001 00C4 		case LCD_4th_LINE: lcd_write(0x80u | START_ADDRESS_4th_LINE | address, CMD); break;
                 _0x20017:
00013a 30e4      	CPI  R30,LOW(0x4)
00013b e0a0      	LDI  R26,HIGH(0x4)
00013c 07fa      	CPC  R31,R26
00013d f421      	BRNE _0x20018
00013e 81e8      	LD   R30,Y
00013f 6de0      	ORI  R30,LOW(0xD0)
000140 d2a7      	RCALL SUBOPT_0x8
000141 c007      	RJMP _0x20014
                 ; 0001 00C5 		/* Set CGRAM address. */
                 ; 0001 00C6 		case CGRAM : lcd_write(0x40u | address, CMD); break;
                 _0x20018:
000142 30e5      	CPI  R30,LOW(0x5)
000143 e0a0      	LDI  R26,HIGH(0x5)
000144 07fa      	CPC  R31,R26
000145 f419      	BRNE _0x2001A
000146 81e8      	LD   R30,Y
000147 64e0      	ORI  R30,0x40
000148 d29f      	RCALL SUBOPT_0x8
                 ; 0001 00C7 
                 ; 0001 00C8 		default:
                 _0x2001A:
                 ; 0001 00C9 			/* Ignore this command */
                 ; 0001 00CA 			break;
                 ; 0001 00CB 	}
                 _0x20014:
                 ; 0001 00CC }
000149 c03d      	RJMP _0x2060004
                 ; .FEND
                 ;
                 ;/*!	\details	Change LCD settings. */
                 ;void lcd_setmode(uint8_t param)
                 ; 0001 00D0 {
                 _lcd_setmode:
                 ; .FSTART _lcd_setmode
                 ; 0001 00D1 	/* Send a command to LCD. */
                 ; 0001 00D2 	lcd_write(param, CMD);
00014a 93aa      	ST   -Y,R26
                 ;	param -> Y+0
00014b 81e8      	LD   R30,Y
00014c d29b      	RCALL SUBOPT_0x8
                 ; 0001 00D3 }
00014d c00a      	RJMP _0x2060005
                 ; .FEND
                 ;
                 ;/*!	\details	Write a single char to the current memory space (DDRAM/CGRAM). */
                 ;void lcd_putc(uint8_t data)
                 ; 0001 00D7 {
                 _lcd_putc:
                 ; .FSTART _lcd_putc
                 ; 0001 00D8 	/* Send data to LCD. */
                 ; 0001 00D9 	lcd_write(data, DTA);
00014e 93aa      	ST   -Y,R26
                 ;	data -> Y+0
00014f 81e8      	LD   R30,Y
000150 93ea      	ST   -Y,R30
000151 e0a1      	LDI  R26,LOW(1)
000152 df84      	RCALL _lcd_write_G001
                 ; 0001 00DA 	/* Note:
                 ; 0001 00DB 	 * After execution of the CGRAM/DDRAM data write/read instruction, the RAM address counter is incremented
                 ; 0001 00DC 	 * or decremented by 1. The RAM address counter is updated after the busy flag turns off.
                 ; 0001 00DD 	 * tADD is the time elapsed after the busy flag turns off until the address counter is updated. */
                 ; 0001 00DE 	lcd_10us_delay(AC_UPDATE_TIME);	/* Update RAM address counter delay. */
                +
000153 e0a1     +LDI R26 , LOW ( 0x1 )
000154 e0b0     +LDI R27 , HIGH ( 0x1 )
000155 e080     +LDI R24 , BYTE3 ( 0x1 )
000156 e090     +LDI R25 , BYTE4 ( 0x1 )
                 	__GETD2N 0x1
000157 df70      	RCALL _lcd_10us_delay_G001
                 ; 0001 00DF }
                 _0x2060005:
000158 9621      	ADIW R28,1
000159 9508      	RET
                 ; .FEND
                 ;
                 ;/*!	\details	Writes ANSI-C string to LCD (DDRAM memory space). */
                 ;void lcd_puts(const uint8_t *str)
                 ; 0001 00E3 {
                 _lcd_puts:
                 ; .FSTART _lcd_puts
                 ; 0001 00E4 	/* Send a ANSI-C string to LCD. */
                 ; 0001 00E5 	while ('\0' != *str)
00015a 93ba      	ST   -Y,R27
00015b 93aa      	ST   -Y,R26
                 ;	*str -> Y+0
                 _0x2001B:
00015c d28d      	RCALL SUBOPT_0x9
00015d 30e0      	CPI  R30,0
00015e f141      	BREQ _0x2001D
                 ; 0001 00E6 	{
                 ; 0001 00E7 #if ( USE_FORMATTED_OUTPUT )
                 ; 0001 00E8 		if(('\n' == *str))
00015f d28a      	RCALL SUBOPT_0x9
000160 30ea      	CPI  R30,LOW(0xA)
000161 f421      	BRNE _0x2001E
                 ; 0001 00E9 		{/*New line */
                 ; 0001 00EA 			lcd_goto(LCD_2nd_LINE, 0u);
000162 d260      	RCALL SUBOPT_0x0
000163 e0a0      	LDI  R26,LOW(0)
000164 dfba      	RCALL _lcd_goto
                 ; 0001 00EB 		}
                 ; 0001 00EC 		else if(('\r' == *str))
000165 c01b      	RJMP _0x2001F
                 _0x2001E:
000166 d283      	RCALL SUBOPT_0x9
000167 30ed      	CPI  R30,LOW(0xD)
000168 f411      	BRNE _0x20020
                 ; 0001 00ED 		{/* Return home */
                 ; 0001 00EE 			lcd_return();
000169 df9b      	RCALL _lcd_return
                 ; 0001 00EF 		}
                 ; 0001 00F0 		else if(('\t' == *str))
00016a c016      	RJMP _0x20021
                 _0x20020:
00016b d27e      	RCALL SUBOPT_0x9
00016c 30e9      	CPI  R30,LOW(0x9)
00016d f479      	BRNE _0x20022
                 ; 0001 00F1 		{/* Tab space */
                 ; 0001 00F2 			uint8_t i;
                 ; 0001 00F3 
                 ; 0001 00F4 			for(i=0u; i<TAB_SPACE; i++)
00016e 9721      	SBIW R28,1
                 ;	*str -> Y+1
                 ;	i -> Y+0
00016f e0e0      	LDI  R30,LOW(0)
000170 83e8      	ST   Y,R30
                 _0x20024:
000171 81a8      	LD   R26,Y
000172 27bb      	CLR  R27
000173 9714      	SBIW R26,4
000174 f434      	BRGE _0x20025
                 ; 0001 00F5 			{/* Shift cursor to the right. */
                 ; 0001 00F6 				cursor_shift(RIGHT);
000175 e3ae      	LDI  R26,LOW(62)
000176 df97      	RCALL _cursor_shift
                 ; 0001 00F7 			}
000177 81e8      	LD   R30,Y
000178 5fef      	SUBI R30,-LOW(1)
000179 83e8      	ST   Y,R30
00017a cff6      	RJMP _0x20024
                 _0x20025:
                 ; 0001 00F8 		}
00017b 9621      	ADIW R28,1
                 ; 0001 00F9 		else
00017c c004      	RJMP _0x20026
                 _0x20022:
                 ; 0001 00FA #endif
                 ; 0001 00FB 		{
                 ; 0001 00FC 			/* Display a symbol. */
                 ; 0001 00FD 			lcd_putc(*str);
00017d 81a8      	LD   R26,Y
00017e 81b9      	LDD  R27,Y+1
00017f 91ac      	LD   R26,X
000180 dfcd      	RCALL _lcd_putc
                 ; 0001 00FE 		}
                 _0x20026:
                 _0x20021:
                 _0x2001F:
                 ; 0001 00FF 		/* Get the next symbol. */
                 ; 0001 0100 		str++;
000181 81e8      	LD   R30,Y
000182 81f9      	LDD  R31,Y+1
000183 9631      	ADIW R30,1
000184 83e8      	ST   Y,R30
000185 83f9      	STD  Y+1,R31
                 ; 0001 0101 	}
000186 cfd5      	RJMP _0x2001B
                 _0x2001D:
                 ; 0001 0102 }
                 _0x2060004:
000187 9622      	ADIW R28,2
000188 9508      	RET
                 ; .FEND
                 ;
                 ;/*!	\details	Load the user-defined symbol into the CGRAM memory. */
                 ;void lcd_loadchar(uint8_t* vector, uint8_t position)
                 ; 0001 0106 {
                 ; 0001 0107 	uint8_t i;
                 ; 0001 0108 	/* Go to the CGRAM memory space: 0 to 7 */
                 ; 0001 0109 	lcd_goto(CGRAM, (position * FONT_HEIGHT));
                 ;	*vector -> Y+2
                 ;	position -> Y+1
                 ;	i -> R17
                 ; 0001 010A 
                 ; 0001 010B 	for(i = 0u; i < FONT_HEIGHT; i++)
                 ; 0001 010C 	{/* Load one row of pixels into the CGRAM register. */
                 ; 0001 010D 		lcd_putc(vector[i]);
                 ; 0001 010E 	}
                 ; 0001 010F 
                 ; 0001 0110 	/* Return to the DDRAM memory space. */
                 ; 0001 0111 	lcd_goto(LCD_1st_LINE, 0u);
                 ; 0001 0112 }
                 ;
                 ;/*!	\details	Load and display the user-defined symbol. */
                 ;void lcd_drawchar( uint8_t* vector,
                 ; 0001 0116 			   	   uint8_t position,
                 ; 0001 0117 			   	   uint8_t line,
                 ; 0001 0118 			   	   uint8_t address )
                 ; 0001 0119 {
                 ; 0001 011A 	/* Load the user-defined symbol into the CGRAM memory. */
                 ; 0001 011B 	lcd_loadchar(vector, position);
                 ;	*vector -> Y+3
                 ;	position -> Y+2
                 ;	line -> Y+1
                 ;	address -> Y+0
                 ; 0001 011C 	/* Select LCD position. */
                 ; 0001 011D 	lcd_goto(line, address);
                 ; 0001 011E 	/* Display the user-defined symbol. */
                 ; 0001 011F 	lcd_putc(position);
                 ; 0001 0120 }
                 ;
                 ;/*!	\details	Erase a symbol from the left of the cursor. */
                 ;void lcd_backspace(void)
                 ; 0001 0124 {
                 ; 0001 0125 	cursor_shift(LEFT);		// Ñäâèãàåì êóðñîð íà îäíó ïîçèöèþ âëåâî
                 ; 0001 0126 	lcd_putc(' ');			// Î÷èùàåì, ïîñëå ÷åãî ïðîèñõîäèò àâòîèíêðåìåíò âïðàâî
                 ; 0001 0127 	cursor_shift(LEFT);		// Ñäâèãàåì êóðñîð íà îäíó ïîçèöèþ âëåâî
                 ; 0001 0128 }
                 ;
                 ;/*!	\brief	Returns 10^n value. */
                 ;static uint32_t lcd_pow10(uint8_t n)
                 ; 0001 012C {
                 ; 0001 012D 	uint32_t retval = 1u;
                 ; 0001 012E 
                 ; 0001 012F 	while (n > 0u)
                 ;	n -> Y+4
                 ;	retval -> Y+0
                 ; 0001 0130 	{
                 ; 0001 0131 		retval *= 10u;
                 ; 0001 0132 		n--;
                 ; 0001 0133 	}
                 ; 0001 0134 
                 ; 0001 0135 	return retval;
                 ; 0001 0136 }
                 ;
                 ;/*!	\brief	Display a integer number: +/- 2147483647. */
                 ;void lcd_itos(int32_t value)
                 ; 0001 013A {
                 ; 0001 013B 	int32_t i;
                 ; 0001 013C 
                 ; 0001 013D 	if (value < 0)
                 ;	value -> Y+4
                 ;	i -> Y+0
                 ; 0001 013E 	{
                 ; 0001 013F 		lcd_putc('-');
                 ; 0001 0140 		value = -value;
                 ; 0001 0141 	}
                 ; 0001 0142 
                 ; 0001 0143 	i = 1;
                 ; 0001 0144 	while ((value / i) > 9)
                 ; 0001 0145 	{
                 ; 0001 0146 		i *= 10;
                 ; 0001 0147 	}
                 ; 0001 0148 
                 ; 0001 0149 	lcd_putc(value/i + '0');	/* Display at least one symbol */
                 ; 0001 014A 	i /= 10;
                 ; 0001 014B 
                 ; 0001 014C 	while (i > 0)
                 ; 0001 014D 	{
                 ; 0001 014E 		lcd_putc('0' + ((value % (i*10)) / i));
                 ; 0001 014F 		i /= 10;
                 ; 0001 0150 	}
                 ; 0001 0151 }
                 ;
                 ;/*!	\brief	Display a floating point number. */
                 ;void lcd_ftos(float value, uint8_t n)
                 ; 0001 0155 {
                 ; 0001 0156 	if (value < 0.0)
                 ;	value -> Y+1
                 ;	n -> Y+0
                 ; 0001 0157 	{
                 ; 0001 0158 		lcd_putc('-');
                 ; 0001 0159 		value = -value;
                 ; 0001 015A 	}
                 ; 0001 015B 
                 ; 0001 015C 	lcd_itos((int32_t)value); // Âûâîä öåëîé ÷àñòè
                 ; 0001 015D 
                 ; 0001 015E 	if (n > 0u)
                 ; 0001 015F 	{
                 ; 0001 0160 		lcd_putc('.'); // Òî÷êà
                 ; 0001 0161 
                 ; 0001 0162 		lcd_ntos((uint32_t)(value * (float)lcd_pow10(n)), n); // Âûâîä äðîáíîé ÷àñòè
                 ; 0001 0163 	}
                 ; 0001 0164 }
                 ;
                 ;/*!	\brief	Display "n" right digits of "value". */
                 ;void lcd_ntos(uint32_t value, uint8_t n)
                 ; 0001 0168 {
                 ; 0001 0169 	if (n > 0u)
                 ;	value -> Y+1
                 ;	n -> Y+0
                 ; 0001 016A 	{
                 ; 0001 016B 		uint32_t i = lcd_pow10(n - 1u);
                 ; 0001 016C 
                 ; 0001 016D 		while (i > 0u)	/* Display at least one symbol */
                 ;	value -> Y+5
                 ;	n -> Y+4
                 ;	i -> Y+0
                 ; 0001 016E 		{
                 ; 0001 016F 			lcd_putc('0' + ((value/i) % 10u));
                 ; 0001 0170 
                 ; 0001 0171 			i /= 10u;
                 ; 0001 0172 		}
                 ; 0001 0173 	}
                 ; 0001 0174 }
                 ;
                 ;#if ( USE_PROGRESS_BAR )
                 ;/*!	\brief	Initialize the progress bar
                 ; * 			(i.e. preload elements of the progress bar into CGRAM and reset all variables). */
                 ;static void lcd_initbar(void)
                 ; 0001 017A {
                 _lcd_initbar_G001:
                 ; .FSTART _lcd_initbar_G001
                 ; 0001 017B 	uint8_t i, j;
                 ; 0001 017C 
                 ; 0001 017D 	for (i = 0u; i < CGROM_PROGRESS_BAR_SIZE; i++)
000189 d2ba      	RCALL __SAVELOCR2
                 ;	i -> R17
                 ;	j -> R16
00018a e010      	LDI  R17,LOW(0)
                 _0x2003B:
00018b 2fa1      	MOV  R26,R17
00018c 27bb      	CLR  R27
00018d 9716      	SBIW R26,6
00018e f4ec      	BRGE _0x2003C
                 ; 0001 017E 	{
                 ; 0001 017F 		lcd_goto(CGRAM, (i * FONT_HEIGHT));
00018f e0e5      	LDI  R30,LOW(5)
000190 93ea      	ST   -Y,R30
000191 2fe1      	MOV  R30,R17
000192 0fee      	LSL  R30
000193 0fee      	LSL  R30
000194 0fee      	LSL  R30
000195 2fae      	MOV  R26,R30
000196 df88      	RCALL _lcd_goto
                 ; 0001 0180 
                 ; 0001 0181 		for (j = 0u; j < FONT_HEIGHT; j++)
000197 e000      	LDI  R16,LOW(0)
                 _0x2003E:
000198 2fa0      	MOV  R26,R16
000199 27bb      	CLR  R27
00019a 9718      	SBIW R26,8
00019b f474      	BRGE _0x2003F
                 ; 0001 0182 		{
                 ; 0001 0183 			if (j < PROGRESS_BAR_HEIGHT)
00019c 2fa0      	MOV  R26,R16
00019d 27bb      	CLR  R27
00019e 9713      	SBIW R26,3
00019f f434      	BRGE _0x20040
                 ; 0001 0184 			{
                 ; 0001 0185 				lcd_putc(progress_bar[i]);
0001a0 2fe1      	MOV  R30,R17
0001a1 e0f0      	LDI  R31,0
0001a2 5dea      	SUBI R30,LOW(-_progress_bar_G001*2)
0001a3 4fff      	SBCI R31,HIGH(-_progress_bar_G001*2)
0001a4 91a4      	LPM  R26,Z
0001a5 c001      	RJMP _0x20053
                 ; 0001 0186 			}
                 ; 0001 0187 			else
                 _0x20040:
                 ; 0001 0188 			{/* Load an empty row of pixels in CGRAM. */
                 ; 0001 0189 				lcd_putc(EMPTY_ROW);
0001a6 e0a0      	LDI  R26,LOW(0)
                 _0x20053:
0001a7 dfa6      	RCALL _lcd_putc
                 ; 0001 018A 			}
                 ; 0001 018B 		}
0001a8 5f0f      	SUBI R16,-1
0001a9 cfee      	RJMP _0x2003E
                 _0x2003F:
                 ; 0001 018C 	}
0001aa 5f1f      	SUBI R17,-1
0001ab cfdf      	RJMP _0x2003B
                 _0x2003C:
                 ; 0001 018D 
                 ; 0001 018E 	/* Clear the entire bar and initialize all variables. */
                 ; 0001 018F 	lcd_clrbar();
0001ac d003      	RCALL _lcd_clrbar
                 ; 0001 0190 }
0001ad 9109      	LD   R16,Y+
0001ae 9119      	LD   R17,Y+
0001af 9508      	RET
                 ; .FEND
                 ;
                 ;/*!	\brief	Draw progress bar. */
                 ;void lcd_drawbar(uint8_t next_bar_pixel)
                 ; 0001 0194 {
                 ; 0001 0195 	/* Go to the current cell position in the progress bar. */
                 ; 0001 0196 	lcd_goto(PROGRESS_BAR_LINE, (current_bar_pixel / FONT_WIDTH));
                 ;	next_bar_pixel -> Y+0
                 ; 0001 0197 
                 ; 0001 0198 	if (next_bar_pixel > current_bar_pixel)
                 ; 0001 0199 	{
                 ; 0001 019A 		/* Increment LCD cursor */
                 ; 0001 019B 		lcd_setmode(ENTRY_MODE_INC_NO_SHIFT);
                 ; 0001 019C 
                 ; 0001 019D 		/* Prevent the progress bar overflow */
                 ; 0001 019E 		if (next_bar_pixel > PROGRESS_BAR_MAX_LOAD)
                 ; 0001 019F 		{
                 ; 0001 01A0 			next_bar_pixel = PROGRESS_BAR_MAX_LOAD;
                 ; 0001 01A1 		}
                 ; 0001 01A2 
                 ; 0001 01A3 		while (current_bar_pixel != next_bar_pixel)
                 ; 0001 01A4 		{
                 ; 0001 01A5 			/* Go to the next pixel. */
                 ; 0001 01A6 			current_bar_pixel++;
                 ; 0001 01A7 			current_cell_load++;
                 ; 0001 01A8 			/* Display the load of the current cell. */
                 ; 0001 01A9 			lcd_putc(current_cell_load);
                 ; 0001 01AA 
                 ; 0001 01AB 			if (current_cell_load < FULL_LOAD)
                 ; 0001 01AC 			{/* Return the cursor to the current cell. */
                 ; 0001 01AD 				cursor_shift(LEFT);
                 ; 0001 01AE 			}
                 ; 0001 01AF 			else
                 ; 0001 01B0 			{/* Go to the next cell. */
                 ; 0001 01B1 				current_cell_load = EMPTY_LOAD;
                 ; 0001 01B2 			}
                 ; 0001 01B3 		}
                 ; 0001 01B4 	 }
                 ; 0001 01B5 #if (USE_REGRESS_BAR)
                 ; 0001 01B6 	 else if (next_bar_pixel < current_bar_pixel)
                 ; 0001 01B7 	 {
                 ; 0001 01B8 		 /* Decrement LCD cursor */
                 ; 0001 01B9 		lcd_setmode(ENTRY_MODE_DEC_NO_SHIFT);
                 ; 0001 01BA 
                 ; 0001 01BB 		do
                 ; 0001 01BC 		{
                 ; 0001 01BD 			if (EMPTY_LOAD == current_cell_load)
                 ; 0001 01BE 			{/* Go to the next cell. */
                 ; 0001 01BF 				cursor_shift(LEFT);
                 ; 0001 01C0 				current_cell_load = FULL_LOAD;
                 ; 0001 01C1 			}
                 ; 0001 01C2 			/* Go to the next pixel. */
                 ; 0001 01C3 			current_bar_pixel--;
                 ; 0001 01C4 			current_cell_load--;
                 ; 0001 01C5 			/* Display the load of the current cell. */
                 ; 0001 01C6 			lcd_putc(current_cell_load);
                 ; 0001 01C7 			/* Return the cursor to the current cell. */
                 ; 0001 01C8 			cursor_shift(RIGHT);
                 ; 0001 01C9 		}
                 ; 0001 01CA 		while (current_bar_pixel != next_bar_pixel);
                 ; 0001 01CB 	 }
                 ; 0001 01CC #endif /* USE_REGRESS_BAR */
                 ; 0001 01CD 	 else
                 ; 0001 01CE 	 {
                 ; 0001 01CF 		 /* Nothing to do. */
                 ; 0001 01D0 	 }
                 ; 0001 01D1 
                 ; 0001 01D2 	/* Restore the default entry mode. */
                 ; 0001 01D3 	lcd_setmode(DEFAULT_ENTRY_MODE);
                 ; 0001 01D4 	/* Return home. */
                 ; 0001 01D5 	lcd_goto(LCD_1st_LINE, 0u);
                 ; 0001 01D6 }
                 ;
                 ;/*!	\brief	Clear the entire progress bar. */
                 ;void lcd_clrbar(void)
                 ; 0001 01DA {
                 _lcd_clrbar:
                 ; .FSTART _lcd_clrbar
                 ; 0001 01DB 	uint8_t i;
                 ; 0001 01DC 	/* Go to the last cell in the progress bar. */
                 ; 0001 01DD 	lcd_goto(PROGRESS_BAR_LINE, (PROGRESS_BAR_WIDTH - 1u));
0001b0 931a      	ST   -Y,R17
                 ;	i -> R17
0001b1 d211      	RCALL SUBOPT_0x0
0001b2 e0a9      	LDI  R26,LOW(9)
0001b3 df6b      	RCALL _lcd_goto
                 ; 0001 01DE 	/* Set the decrement mode. */
                 ; 0001 01DF 	lcd_setmode(ENTRY_MODE_DEC_NO_SHIFT);
0001b4 e0a4      	LDI  R26,LOW(4)
0001b5 df94      	RCALL _lcd_setmode
                 ; 0001 01E0 
                 ; 0001 01E1 	for(i = 0u; i < PROGRESS_BAR_WIDTH; i++)
0001b6 e010      	LDI  R17,LOW(0)
                 _0x20051:
0001b7 2fa1      	MOV  R26,R17
0001b8 27bb      	CLR  R27
0001b9 971a      	SBIW R26,10
0001ba f424      	BRGE _0x20052
                 ; 0001 01E2 	{/* Display the "empty cell" symbol (i.e. clear the LCD cell). */
                 ; 0001 01E3 		lcd_putc(EMPTY_LOAD);
0001bb e0a0      	LDI  R26,LOW(0)
0001bc df91      	RCALL _lcd_putc
                 ; 0001 01E4 	}
0001bd 5f1f      	SUBI R17,-1
0001be cff8      	RJMP _0x20051
                 _0x20052:
                 ; 0001 01E5 
                 ; 0001 01E6 	/* Reset the progress bar variables. */
                 ; 0001 01E7 	current_bar_pixel = 0u;
0001bf e0e0      	LDI  R30,LOW(0)
0001c0 93e0 017c 	STS  _current_bar_pixel_G001,R30
                 ; 0001 01E8 	current_cell_load = EMPTY_LOAD;
0001c2 93e0 017d 	STS  _current_cell_load_G001,R30
                 ; 0001 01E9 
                 ; 0001 01EA 	/* Restore the default entry mode. */
                 ; 0001 01EB 	lcd_setmode(DEFAULT_ENTRY_MODE);
0001c4 e0a6      	LDI  R26,LOW(6)
0001c5 df84      	RCALL _lcd_setmode
                 ; 0001 01EC 	/* Return home. */
                 ; 0001 01ED 	lcd_goto(LCD_1st_LINE, 0u);
0001c6 e0e1      	LDI  R30,LOW(1)
0001c7 93ea      	ST   -Y,R30
0001c8 e0a0      	LDI  R26,LOW(0)
0001c9 df55      	RCALL _lcd_goto
                 ; 0001 01EE }
0001ca 9119      	LD   R17,Y+
0001cb 9508      	RET
                 ; .FEND
                 ;#endif
                 ;
                 ;/*!	\brief	Initialize the LCD.
                 ; * 	\note	This library use the 4-bit interface. */
                 ;void lcd_init(void)
                 ; 0001 01F4 {
                 _lcd_init:
                 ; .FSTART _lcd_init
                 ; 0001 01F5 	/* LCD initialization. */
                 ; 0001 01F6 	lcd_config(DEFAULT_DISPLAY_CONFIG);
0001cc e2a8      	LDI  R26,LOW(40)
0001cd df1f      	RCALL _lcd_config_G001
                 ; 0001 01F7 	lcd_setmode(DEFAULT_VIEW_MODE);
0001ce e0ac      	LDI  R26,LOW(12)
0001cf df7a      	RCALL _lcd_setmode
                 ; 0001 01F8 	lcd_setmode(DEFAULT_ENTRY_MODE);
0001d0 e0a6      	LDI  R26,LOW(6)
0001d1 df78      	RCALL _lcd_setmode
                 ; 0001 01F9 	lcd_clrscr();
0001d2 df30      	RCALL _lcd_clrscr
                 ; 0001 01FA 	lcd_return();
0001d3 df31      	RCALL _lcd_return
                 ; 0001 01FB #if (USE_PROGRESS_BAR)
                 ; 0001 01FC 	lcd_initbar();
0001d4 dfb4      	RCALL _lcd_initbar_G001
                 ; 0001 01FD #endif
                 ; 0001 01FE }
0001d5 9508      	RET
                 ; .FEND
                 ;
                 ;//-------------------------------
                 ;/* END OF FILE */
                 ;//-------------------------------
                 	#ifndef __SLEEP_DEFINED__
                 	#endif
                 
                 	.DSEG
                 
                 	.CSEG
                 _twi_master_init:
                 ; .FSTART _twi_master_init
0001d6 93ba      	ST   -Y,R27
0001d7 93aa      	ST   -Y,R26
0001d8 931a      	ST   -Y,R17
0001d9 9468      	SET
0001da f821      	BLD  R2,1
0001db e0e7      	LDI  R30,LOW(7)
0001dc 93e0 017b 	STS  _twi_result,R30
0001de e0e0      	LDI  R30,LOW(0)
0001df 93e0 0186 	STS  _twi_slave_rx_handler_G100,R30
0001e1 93e0 0187 	STS  _twi_slave_rx_handler_G100+1,R30
0001e3 93e0 0188 	STS  _twi_slave_tx_handler_G100,R30
0001e5 93e0 0189 	STS  _twi_slave_tx_handler_G100+1,R30
0001e7 9aac      	SBI  0x15,4
0001e8 9aad      	SBI  0x15,5
0001e9 bfe6      	OUT  0x36,R30
0001ea b1e1      	IN   R30,0x1
0001eb 7fec      	ANDI R30,LOW(0xFC)
0001ec b9e1      	OUT  0x1,R30
0001ed 81e9      	LDD  R30,Y+1
0001ee 81fa      	LDD  R31,Y+1+1
0001ef eaa0      	LDI  R26,LOW(4000)
0001f0 e0bf      	LDI  R27,HIGH(4000)
0001f1 d221      	RCALL __DIVW21U
0001f2 2f1e      	MOV  R17,R30
0001f3 3018      	CPI  R17,8
0001f4 f008      	BRLO _0x2000004
0001f5 5018      	SUBI R17,LOW(8)
                 _0x2000004:
0001f6 b910      	OUT  0x0,R17
0001f7 b7e6      	IN   R30,0x36
0001f8 78e0      	ANDI R30,LOW(0x80)
0001f9 64e5      	ORI  R30,LOW(0x45)
0001fa bfe6      	OUT  0x36,R30
0001fb 8118      	LDD  R17,Y+0
                 _0x2060003:
0001fc 9623      	ADIW R28,3
0001fd 9508      	RET
                 ; .FEND
                 _twi_master_trans:
                 ; .FSTART _twi_master_trans
0001fe 93aa      	ST   -Y,R26
0001ff 9724      	SBIW R28,4
000200 fe21      	SBRS R2,1
000201 c05b      	RJMP _0x2000005
000202 85ea      	LDD  R30,Y+10
000203 0fee      	LSL  R30
000204 93e0 017e 	STS  _slave_address_G100,R30
000206 85e8      	LDD  R30,Y+8
000207 85f9      	LDD  R31,Y+8+1
000208 93e0 017f 	STS  _twi_tx_buffer_G100,R30
00020a 93f0 0180 	STS  _twi_tx_buffer_G100+1,R31
00020c e0e0      	LDI  R30,LOW(0)
00020d 93e0 0179 	STS  _twi_tx_index,R30
00020f 81ef      	LDD  R30,Y+7
000210 93e0 0181 	STS  _bytes_to_tx_G100,R30
000212 81ed      	LDD  R30,Y+5
000213 81fe      	LDD  R31,Y+5+1
000214 93e0 0182 	STS  _twi_rx_buffer_G100,R30
000216 93f0 0183 	STS  _twi_rx_buffer_G100+1,R31
000218 e0e0      	LDI  R30,LOW(0)
000219 93e0 017a 	STS  _twi_rx_index,R30
00021b 81ec      	LDD  R30,Y+4
00021c 93e0 0184 	STS  _bytes_to_rx_G100,R30
00021e e0e6      	LDI  R30,LOW(6)
00021f 93e0 017b 	STS  _twi_result,R30
000221 9478      	sei
000222 81ef      	LDD  R30,Y+7
000223 30e0      	CPI  R30,0
000224 f079      	BREQ _0x2000006
000225 85e8      	LDD  R30,Y+8
000226 85f9      	LDD  R31,Y+8+1
000227 9730      	SBIW R30,0
000228 f1a1      	BREQ _0x2060002
000229 81ec      	LDD  R30,Y+4
00022a 30e0      	CPI  R30,0
00022b f021      	BREQ _0x2000009
00022c 81ad      	LDD  R26,Y+5
00022d 81be      	LDD  R27,Y+5+1
00022e 9710      	SBIW R26,0
00022f f009      	BREQ _0x200000A
                 _0x2000009:
000230 c001      	RJMP _0x2000008
                 _0x200000A:
000231 c02b      	RJMP _0x2060002
                 _0x2000008:
000232 9468      	SET
000233 c00d      	RJMP _0x2000065
                 _0x2000006:
000234 81ec      	LDD  R30,Y+4
000235 30e0      	CPI  R30,0
000236 f109      	BREQ _0x200000C
000237 81ed      	LDD  R30,Y+5
000238 81fe      	LDD  R31,Y+5+1
000239 9730      	SBIW R30,0
00023a f111      	BREQ _0x2060002
00023b 91e0 017e 	LDS  R30,_slave_address_G100
00023d 60e1      	ORI  R30,1
00023e 93e0 017e 	STS  _slave_address_G100,R30
000240 94e8      	CLT
                 _0x2000065:
000241 f820      	BLD  R2,0
000242 94e8      	CLT
000243 f821      	BLD  R2,1
000244 b7e6      	IN   R30,0x36
000245 70ef      	ANDI R30,LOW(0xF)
000246 6ae0      	ORI  R30,LOW(0xA0)
000247 bfe6      	OUT  0x36,R30
                +
000248 e2e0     +LDI R30 , LOW ( 0x7A120 )
000249 eaf1     +LDI R31 , HIGH ( 0x7A120 )
00024a e067     +LDI R22 , BYTE3 ( 0x7A120 )
00024b e070     +LDI R23 , BYTE4 ( 0x7A120 )
                 	__GETD1N 0x7A120
00024c d17b      	RCALL SUBOPT_0x2
                 _0x200000E:
00024d fc21      	SBRC R2,1
00024e c009      	RJMP _0x2000010
00024f d17a      	RCALL SUBOPT_0x3
000250 f431      	BRNE _0x2000011
000251 e0e5      	LDI  R30,LOW(5)
000252 93e0 017b 	STS  _twi_result,R30
000254 9468      	SET
000255 f821      	BLD  R2,1
000256 c006      	RJMP _0x2060002
                 _0x2000011:
000257 cff5      	RJMP _0x200000E
                 _0x2000010:
                 _0x200000C:
000258 91a0 017b 	LDS  R26,_twi_result
00025a e0e0      	LDI  R30,LOW(0)
00025b d192      	RCALL __EQB12
00025c c001      	RJMP _0x2060001
                 _0x2000005:
                 _0x2060002:
00025d e0e0      	LDI  R30,LOW(0)
                 _0x2060001:
00025e 962b      	ADIW R28,11
00025f 9508      	RET
                 ; .FEND
                 _twi_int_handler:
                 ; .FSTART _twi_int_handler
000260 920a      	ST   -Y,R0
000261 921a      	ST   -Y,R1
000262 92fa      	ST   -Y,R15
000263 936a      	ST   -Y,R22
000264 937a      	ST   -Y,R23
000265 938a      	ST   -Y,R24
000266 939a      	ST   -Y,R25
000267 93aa      	ST   -Y,R26
000268 93ba      	ST   -Y,R27
000269 93ea      	ST   -Y,R30
00026a 93fa      	ST   -Y,R31
00026b b7ef      	IN   R30,SREG
00026c 93ea      	ST   -Y,R30
00026d d1d2      	RCALL __SAVELOCR6
00026e 9110 017a 	LDS  R17,_twi_rx_index
000270 9100 0179 	LDS  R16,_twi_tx_index
000272 9130 0181 	LDS  R19,_bytes_to_tx_G100
000274 9120 017b 	LDS  R18,_twi_result
000276 2fe1      	MOV  R30,R17
000277 91a0 0182 	LDS  R26,_twi_rx_buffer_G100
000279 91b0 0183 	LDS  R27,_twi_rx_buffer_G100+1
00027b e0f0      	LDI  R31,0
00027c 0fea      	ADD  R30,R26
00027d 1ffb      	ADC  R31,R27
00027e 01af      	MOVW R20,R30
00027f b1e1      	IN   R30,0x1
000280 7fe8      	ANDI R30,LOW(0xF8)
000281 30e8      	CPI  R30,LOW(0x8)
000282 f411      	BRNE _0x2000017
000283 e020      	LDI  R18,LOW(0)
000284 c002      	RJMP _0x2000018
                 _0x2000017:
000285 31e0      	CPI  R30,LOW(0x10)
000286 f419      	BRNE _0x2000019
                 _0x2000018:
000287 91e0 017e 	LDS  R30,_slave_address_G100
000289 c010      	RJMP _0x2000067
                 _0x2000019:
00028a 31e8      	CPI  R30,LOW(0x18)
00028b f011      	BREQ _0x200001D
00028c 32e8      	CPI  R30,LOW(0x28)
00028d f521      	BRNE _0x200001E
                 _0x200001D:
00028e 1703      	CP   R16,R19
00028f f480      	BRSH _0x200001F
000290 2fe0      	MOV  R30,R16
000291 5f0f      	SUBI R16,-1
000292 91a0 017f 	LDS  R26,_twi_tx_buffer_G100
000294 91b0 0180 	LDS  R27,_twi_tx_buffer_G100+1
000296 e0f0      	LDI  R31,0
000297 0fae      	ADD  R26,R30
000298 1fbf      	ADC  R27,R31
000299 91ec      	LD   R30,X
                 _0x2000067:
00029a b9e3      	OUT  0x3,R30
00029b b7e6      	IN   R30,0x36
00029c 70ef      	ANDI R30,LOW(0xF)
00029d 68e0      	ORI  R30,0x80
00029e bfe6      	OUT  0x36,R30
00029f c011      	RJMP _0x2000020
                 _0x200001F:
0002a0 91e0 0184 	LDS  R30,_bytes_to_rx_G100
0002a2 171e      	CP   R17,R30
0002a3 f460      	BRSH _0x2000021
0002a4 91e0 017e 	LDS  R30,_slave_address_G100
0002a6 60e1      	ORI  R30,1
0002a7 93e0 017e 	STS  _slave_address_G100,R30
0002a9 94e8      	CLT
0002aa f820      	BLD  R2,0
0002ab b7e6      	IN   R30,0x36
0002ac 70ef      	ANDI R30,LOW(0xF)
0002ad 6ae0      	ORI  R30,LOW(0xA0)
0002ae bfe6      	OUT  0x36,R30
0002af c0fb      	RJMP _0x2000016
                 _0x2000021:
0002b0 c033      	RJMP _0x2000022
                 _0x2000020:
0002b1 c0f9      	RJMP _0x2000016
                 _0x200001E:
0002b2 35e0      	CPI  R30,LOW(0x50)
0002b3 f429      	BRNE _0x2000023
0002b4 b1e3      	IN   R30,0x3
0002b5 01da      	MOVW R26,R20
0002b6 93ec      	ST   X,R30
0002b7 5f1f      	SUBI R17,-LOW(1)
0002b8 c002      	RJMP _0x2000024
                 _0x2000023:
0002b9 34e0      	CPI  R30,LOW(0x40)
0002ba f471      	BRNE _0x2000025
                 _0x2000024:
0002bb 91e0 0184 	LDS  R30,_bytes_to_rx_G100
0002bd 50e1      	SUBI R30,LOW(1)
0002be 171e      	CP   R17,R30
0002bf f020      	BRLO _0x2000026
0002c0 b7e6      	IN   R30,0x36
0002c1 70ef      	ANDI R30,LOW(0xF)
0002c2 68e0      	ORI  R30,0x80
0002c3 c003      	RJMP _0x2000068
                 _0x2000026:
0002c4 b7e6      	IN   R30,0x36
0002c5 70ef      	ANDI R30,LOW(0xF)
0002c6 6ce0      	ORI  R30,LOW(0xC0)
                 _0x2000068:
0002c7 bfe6      	OUT  0x36,R30
0002c8 c0e2      	RJMP _0x2000016
                 _0x2000025:
0002c9 35e8      	CPI  R30,LOW(0x58)
0002ca f429      	BRNE _0x2000028
0002cb b1e3      	IN   R30,0x3
0002cc 01da      	MOVW R26,R20
0002cd 93ec      	ST   X,R30
0002ce 5f1f      	SUBI R17,-LOW(1)
0002cf c002      	RJMP _0x2000029
                 _0x2000028:
0002d0 32e0      	CPI  R30,LOW(0x20)
0002d1 f409      	BRNE _0x200002A
                 _0x2000029:
0002d2 c002      	RJMP _0x200002B
                 _0x200002A:
0002d3 33e0      	CPI  R30,LOW(0x30)
0002d4 f409      	BRNE _0x200002C
                 _0x200002B:
0002d5 c002      	RJMP _0x200002D
                 _0x200002C:
0002d6 34e8      	CPI  R30,LOW(0x48)
0002d7 f469      	BRNE _0x200002E
                 _0x200002D:
0002d8 3020      	CPI  R18,0
0002d9 f451      	BRNE _0x200002F
0002da fe20      	SBRS R2,0
0002db c003      	RJMP _0x2000030
0002dc 1703      	CP   R16,R19
0002dd f028      	BRLO _0x2000032
0002de c005      	RJMP _0x2000033
                 _0x2000030:
0002df 91e0 0184 	LDS  R30,_bytes_to_rx_G100
0002e1 171e      	CP   R17,R30
0002e2 f408      	BRSH _0x2000034
                 _0x2000032:
0002e3 e024      	LDI  R18,LOW(4)
                 _0x2000034:
                 _0x2000033:
                 _0x200002F:
                 _0x2000022:
0002e4 c0c0      	RJMP _0x2000069
                 _0x200002E:
0002e5 33e8      	CPI  R30,LOW(0x38)
0002e6 f429      	BRNE _0x2000037
0002e7 e022      	LDI  R18,LOW(2)
0002e8 b7e6      	IN   R30,0x36
0002e9 70ef      	ANDI R30,LOW(0xF)
0002ea 68e0      	ORI  R30,0x80
0002eb c0bc      	RJMP _0x200006A
                 _0x2000037:
0002ec 36e8      	CPI  R30,LOW(0x68)
0002ed f011      	BREQ _0x200003A
0002ee 37e8      	CPI  R30,LOW(0x78)
0002ef f411      	BRNE _0x200003B
                 _0x200003A:
0002f0 e022      	LDI  R18,LOW(2)
0002f1 c005      	RJMP _0x200003C
                 _0x200003B:
0002f2 36e0      	CPI  R30,LOW(0x60)
0002f3 f011      	BREQ _0x200003F
0002f4 37e0      	CPI  R30,LOW(0x70)
0002f5 f491      	BRNE _0x2000040
                 _0x200003F:
0002f6 e020      	LDI  R18,LOW(0)
                 _0x200003C:
0002f7 e010      	LDI  R17,LOW(0)
0002f8 94e8      	CLT
0002f9 f820      	BLD  R2,0
0002fa 91e0 0185 	LDS  R30,_twi_rx_buffer_size_G100
0002fc 30e0      	CPI  R30,0
0002fd f429      	BRNE _0x2000041
0002fe e021      	LDI  R18,LOW(1)
0002ff b7e6      	IN   R30,0x36
000300 70ef      	ANDI R30,LOW(0xF)
000301 68e0      	ORI  R30,0x80
000302 c003      	RJMP _0x200006B
                 _0x2000041:
000303 b7e6      	IN   R30,0x36
000304 70ef      	ANDI R30,LOW(0xF)
000305 6ce0      	ORI  R30,LOW(0xC0)
                 _0x200006B:
000306 bfe6      	OUT  0x36,R30
000307 c0a3      	RJMP _0x2000016
                 _0x2000040:
000308 38e0      	CPI  R30,LOW(0x80)
000309 f011      	BREQ _0x2000044
00030a 39e0      	CPI  R30,LOW(0x90)
00030b f529      	BRNE _0x2000045
                 _0x2000044:
00030c fe20      	SBRS R2,0
00030d c002      	RJMP _0x2000046
00030e e021      	LDI  R18,LOW(1)
00030f c095      	RJMP _0x2000047
                 _0x2000046:
000310 b1e3      	IN   R30,0x3
000311 01da      	MOVW R26,R20
000312 93ec      	ST   X,R30
000313 5f1f      	SUBI R17,-LOW(1)
000314 91e0 0185 	LDS  R30,_twi_rx_buffer_size_G100
000316 171e      	CP   R17,R30
000317 f4b0      	BRSH _0x2000048
000318 91e0 0186 	LDS  R30,_twi_slave_rx_handler_G100
00031a 91f0 0187 	LDS  R31,_twi_slave_rx_handler_G100+1
00031c 9730      	SBIW R30,0
00031d f411      	BRNE _0x2000049
00031e e026      	LDI  R18,LOW(6)
00031f c085      	RJMP _0x2000047
                 _0x2000049:
000320 e0a0      	LDI  R26,LOW(0)
                +
000321 91e0 0186+LDS R30 , _twi_slave_rx_handler_G100 + ( 0 )
000323 91f0 0187+LDS R31 , _twi_slave_rx_handler_G100 + ( 0 ) + 1
000325 9509     +ICALL
                 	__CALL1MN _twi_slave_rx_handler_G100,0
000326 30e0      	CPI  R30,0
000327 f029      	BREQ _0x200004A
000328 b7e6      	IN   R30,0x36
000329 70ef      	ANDI R30,LOW(0xF)
00032a 6ce0      	ORI  R30,LOW(0xC0)
00032b bfe6      	OUT  0x36,R30
00032c c07e      	RJMP _0x2000016
                 _0x200004A:
00032d c002      	RJMP _0x200004B
                 _0x2000048:
00032e 9468      	SET
00032f f820      	BLD  R2,0
                 _0x200004B:
000330 c002      	RJMP _0x200004C
                 _0x2000045:
000331 38e8      	CPI  R30,LOW(0x88)
000332 f409      	BRNE _0x200004D
                 _0x200004C:
000333 c002      	RJMP _0x200004E
                 _0x200004D:
000334 39e8      	CPI  R30,LOW(0x98)
000335 f429      	BRNE _0x200004F
                 _0x200004E:
000336 b7e6      	IN   R30,0x36
000337 70ef      	ANDI R30,LOW(0xF)
000338 68e0      	ORI  R30,0x80
000339 bfe6      	OUT  0x36,R30
00033a c070      	RJMP _0x2000016
                 _0x200004F:
00033b 3ae0      	CPI  R30,LOW(0xA0)
00033c f4a9      	BRNE _0x2000050
00033d b7e6      	IN   R30,0x36
00033e 70ef      	ANDI R30,LOW(0xF)
00033f 6ce0      	ORI  R30,LOW(0xC0)
000340 bfe6      	OUT  0x36,R30
000341 9468      	SET
000342 f821      	BLD  R2,1
000343 91e0 0186 	LDS  R30,_twi_slave_rx_handler_G100
000345 91f0 0187 	LDS  R31,_twi_slave_rx_handler_G100+1
000347 9730      	SBIW R30,0
000348 f039      	BREQ _0x2000051
000349 e0a1      	LDI  R26,LOW(1)
                +
00034a 91e0 0186+LDS R30 , _twi_slave_rx_handler_G100 + ( 0 )
00034c 91f0 0187+LDS R31 , _twi_slave_rx_handler_G100 + ( 0 ) + 1
00034e 9509     +ICALL
                 	__CALL1MN _twi_slave_rx_handler_G100,0
00034f c001      	RJMP _0x2000052
                 _0x2000051:
000350 e026      	LDI  R18,LOW(6)
                 _0x2000052:
000351 c059      	RJMP _0x2000016
                 _0x2000050:
000352 3be0      	CPI  R30,LOW(0xB0)
000353 f411      	BRNE _0x2000053
000354 e022      	LDI  R18,LOW(2)
000355 c002      	RJMP _0x2000054
                 _0x2000053:
000356 3ae8      	CPI  R30,LOW(0xA8)
000357 f4b9      	BRNE _0x2000055
                 _0x2000054:
000358 91e0 0188 	LDS  R30,_twi_slave_tx_handler_G100
00035a 91f0 0189 	LDS  R31,_twi_slave_tx_handler_G100+1
00035c 9730      	SBIW R30,0
00035d f059      	BREQ _0x2000056
00035e e0a0      	LDI  R26,LOW(0)
                +
00035f 91e0 0188+LDS R30 , _twi_slave_tx_handler_G100 + ( 0 )
000361 91f0 0189+LDS R31 , _twi_slave_tx_handler_G100 + ( 0 ) + 1
000363 9509     +ICALL
                 	__CALL1MN _twi_slave_tx_handler_G100,0
000364 2f3e      	MOV  R19,R30
000365 30e0      	CPI  R30,0
000366 f011      	BREQ _0x2000058
000367 e020      	LDI  R18,LOW(0)
000368 c002      	RJMP _0x2000059
                 _0x2000056:
                 _0x2000058:
000369 e026      	LDI  R18,LOW(6)
00036a c03a      	RJMP _0x2000047
                 _0x2000059:
00036b e000      	LDI  R16,LOW(0)
00036c 94e8      	CLT
00036d f820      	BLD  R2,0
00036e c002      	RJMP _0x200005A
                 _0x2000055:
00036f 3be8      	CPI  R30,LOW(0xB8)
000370 f4e1      	BRNE _0x200005B
                 _0x200005A:
000371 fe20      	SBRS R2,0
000372 c002      	RJMP _0x200005C
000373 e021      	LDI  R18,LOW(1)
000374 c030      	RJMP _0x2000047
                 _0x200005C:
000375 2fe0      	MOV  R30,R16
000376 5f0f      	SUBI R16,-1
000377 91a0 017f 	LDS  R26,_twi_tx_buffer_G100
000379 91b0 0180 	LDS  R27,_twi_tx_buffer_G100+1
00037b e0f0      	LDI  R31,0
00037c 0fae      	ADD  R26,R30
00037d 1fbf      	ADC  R27,R31
00037e 91ec      	LD   R30,X
00037f b9e3      	OUT  0x3,R30
000380 1703      	CP   R16,R19
000381 f420      	BRSH _0x200005D
000382 b7e6      	IN   R30,0x36
000383 70ef      	ANDI R30,LOW(0xF)
000384 6ce0      	ORI  R30,LOW(0xC0)
000385 c005      	RJMP _0x200006C
                 _0x200005D:
000386 9468      	SET
000387 f820      	BLD  R2,0
000388 b7e6      	IN   R30,0x36
000389 70ef      	ANDI R30,LOW(0xF)
00038a 68e0      	ORI  R30,0x80
                 _0x200006C:
00038b bfe6      	OUT  0x36,R30
00038c c01e      	RJMP _0x2000016
                 _0x200005B:
00038d 3ce0      	CPI  R30,LOW(0xC0)
00038e f011      	BREQ _0x2000060
00038f 3ce8      	CPI  R30,LOW(0xC8)
000390 f489      	BRNE _0x2000061
                 _0x2000060:
000391 b7e6      	IN   R30,0x36
000392 70ef      	ANDI R30,LOW(0xF)
000393 6ce0      	ORI  R30,LOW(0xC0)
000394 bfe6      	OUT  0x36,R30
000395 91e0 0188 	LDS  R30,_twi_slave_tx_handler_G100
000397 91f0 0189 	LDS  R31,_twi_slave_tx_handler_G100+1
000399 9730      	SBIW R30,0
00039a f031      	BREQ _0x2000062
00039b e0a1      	LDI  R26,LOW(1)
                +
00039c 91e0 0188+LDS R30 , _twi_slave_tx_handler_G100 + ( 0 )
00039e 91f0 0189+LDS R31 , _twi_slave_tx_handler_G100 + ( 0 ) + 1
0003a0 9509     +ICALL
                 	__CALL1MN _twi_slave_tx_handler_G100,0
                 _0x2000062:
0003a1 c007      	RJMP _0x2000035
                 _0x2000061:
0003a2 30e0      	CPI  R30,0
0003a3 f439      	BRNE _0x2000016
0003a4 e023      	LDI  R18,LOW(3)
                 _0x2000047:
                 _0x2000069:
0003a5 b7e6      	IN   R30,0x36
0003a6 70ef      	ANDI R30,LOW(0xF)
0003a7 6de0      	ORI  R30,LOW(0xD0)
                 _0x200006A:
0003a8 bfe6      	OUT  0x36,R30
                 _0x2000035:
0003a9 9468      	SET
0003aa f821      	BLD  R2,1
                 _0x2000016:
0003ab 9310 017a 	STS  _twi_rx_index,R17
0003ad 9300 0179 	STS  _twi_tx_index,R16
0003af 9320 017b 	STS  _twi_result,R18
0003b1 9330 0181 	STS  _bytes_to_tx_G100,R19
0003b3 d093      	RCALL __LOADLOCR6
0003b4 9626      	ADIW R28,6
0003b5 91e9      	LD   R30,Y+
0003b6 bfef      	OUT  SREG,R30
0003b7 91f9      	LD   R31,Y+
0003b8 91e9      	LD   R30,Y+
0003b9 91b9      	LD   R27,Y+
0003ba 91a9      	LD   R26,Y+
0003bb 9199      	LD   R25,Y+
0003bc 9189      	LD   R24,Y+
0003bd 9179      	LD   R23,Y+
0003be 9169      	LD   R22,Y+
0003bf 90f9      	LD   R15,Y+
0003c0 9019      	LD   R1,Y+
0003c1 9009      	LD   R0,Y+
0003c2 9518      	RETI
                 ; .FEND
                 	#ifndef __SLEEP_DEFINED__
                 	#endif
                 
                 	.CSEG
                 
                 	.CSEG
                 
                 	.DSEG
                 _twi_tx_index:
000179           	.BYTE 0x1
                 _twi_rx_index:
00017a           	.BYTE 0x1
                 _twi_result:
00017b           	.BYTE 0x1
                 _current_bar_pixel_G001:
00017c           	.BYTE 0x1
                 _current_cell_load_G001:
00017d           	.BYTE 0x1
                 _slave_address_G100:
00017e           	.BYTE 0x1
                 _twi_tx_buffer_G100:
00017f           	.BYTE 0x2
                 _bytes_to_tx_G100:
000181           	.BYTE 0x1
                 _twi_rx_buffer_G100:
000182           	.BYTE 0x2
                 _bytes_to_rx_G100:
000184           	.BYTE 0x1
                 _twi_rx_buffer_size_G100:
000185           	.BYTE 0x1
                 _twi_slave_rx_handler_G100:
000186           	.BYTE 0x2
                 _twi_slave_tx_handler_G100:
000188           	.BYTE 0x2
                 
                 	.CSEG
                 ;OPTIMIZER ADDED SUBROUTINE, CALLED 6 TIMES, CODE SIZE REDUCTION:3 WORDS
                 SUBOPT_0x0:
0003c3 e0e2      	LDI  R30,LOW(2)
0003c4 93ea      	ST   -Y,R30
0003c5 9508      	RET
                 
                 ;OPTIMIZER ADDED SUBROUTINE, CALLED 3 TIMES, CODE SIZE REDUCTION:4 WORDS
                 SUBOPT_0x1:
0003c6 d05f      	RCALL __GETD1S0
0003c7 9508      	RET
                 
                 ;OPTIMIZER ADDED SUBROUTINE, CALLED 4 TIMES, CODE SIZE REDUCTION:7 WORDS
                 SUBOPT_0x2:
0003c8 d067      	RCALL __PUTD1S0
0003c9 9508      	RET
                 
                 ;OPTIMIZER ADDED SUBROUTINE, CALLED 2 TIMES, CODE SIZE REDUCTION:2 WORDS
                 SUBOPT_0x3:
0003ca dffb      	RCALL SUBOPT_0x1
0003cb 9731      	SBIW R30,1
0003cc 4060      	SBCI R22,0
0003cd 4070      	SBCI R23,0
0003ce cff9      	RJMP SUBOPT_0x2
                 
                 ;OPTIMIZER ADDED SUBROUTINE, CALLED 4 TIMES, CODE SIZE REDUCTION:10 WORDS
                 SUBOPT_0x4:
0003cf 60e4      	ORI  R30,4
0003d0 83e8      	ST   Y,R30
0003d1 7feb      	ANDI R30,0xFB
0003d2 83e9      	STD  Y+1,R30
0003d3 9508      	RET
                 
                 ;OPTIMIZER ADDED SUBROUTINE, CALLED 4 TIMES, CODE SIZE REDUCTION:13 WORDS
                 SUBOPT_0x5:
0003d4 e2e7      	LDI  R30,LOW(39)
0003d5 93ea      	ST   -Y,R30
0003d6 01fe      	MOVW R30,R28
0003d7 9631      	ADIW R30,1
0003d8 93fa      	ST   -Y,R31
0003d9 93ea      	ST   -Y,R30
0003da 9508      	RET
                 
                 ;OPTIMIZER ADDED SUBROUTINE, CALLED 4 TIMES, CODE SIZE REDUCTION:28 WORDS
                 SUBOPT_0x6:
0003db e0e0      	LDI  R30,LOW(0)
0003dc e0f0      	LDI  R31,HIGH(0)
0003dd 93fa      	ST   -Y,R31
0003de 93ea      	ST   -Y,R30
0003df e0a0      	LDI  R26,LOW(0)
0003e0 de1d      	RCALL _twi_master_trans
                +
0003e1 e0a5     +LDI R26 , LOW ( 0x5 )
0003e2 e0b0     +LDI R27 , HIGH ( 0x5 )
0003e3 e080     +LDI R24 , BYTE3 ( 0x5 )
0003e4 e090     +LDI R25 , BYTE4 ( 0x5 )
                 	__GETD2N 0x5
0003e5 cce2      	RJMP _lcd_10us_delay_G001
                 
                 ;OPTIMIZER ADDED SUBROUTINE, CALLED 9 TIMES, CODE SIZE REDUCTION:6 WORDS
                 SUBOPT_0x7:
0003e6 e0a0      	LDI  R26,LOW(0)
0003e7 ccef      	RJMP _lcd_write_G001
                 
                 ;OPTIMIZER ADDED SUBROUTINE, CALLED 8 TIMES, CODE SIZE REDUCTION:5 WORDS
                 SUBOPT_0x8:
0003e8 93ea      	ST   -Y,R30
0003e9 cffc      	RJMP SUBOPT_0x7
                 
                 ;OPTIMIZER ADDED SUBROUTINE, CALLED 4 TIMES, CODE SIZE REDUCTION:4 WORDS
                 SUBOPT_0x9:
0003ea 81a8      	LD   R26,Y
0003eb 81b9      	LDD  R27,Y+1
0003ec 91ec      	LD   R30,X
0003ed 9508      	RET
                 
                 
                 	.CSEG
                 __EQB12:
0003ee 17ea      	CP   R30,R26
0003ef e0e1      	LDI  R30,1
0003f0 f009      	BREQ __EQB12T
0003f1 27ee      	CLR  R30
                 __EQB12T:
0003f2 9508      	RET
                 
                 __MULD12U:
0003f3 9f7a      	MUL  R23,R26
0003f4 2d70      	MOV  R23,R0
0003f5 9f6b      	MUL  R22,R27
0003f6 0d70      	ADD  R23,R0
0003f7 9ff8      	MUL  R31,R24
0003f8 0d70      	ADD  R23,R0
0003f9 9fe9      	MUL  R30,R25
0003fa 0d70      	ADD  R23,R0
0003fb 9f6a      	MUL  R22,R26
0003fc 2d60      	MOV  R22,R0
0003fd 0d71      	ADD  R23,R1
0003fe 9ffb      	MUL  R31,R27
0003ff 0d60      	ADD  R22,R0
000400 1d71      	ADC  R23,R1
000401 9fe8      	MUL  R30,R24
000402 0d60      	ADD  R22,R0
000403 1d71      	ADC  R23,R1
000404 2788      	CLR  R24
000405 9ffa      	MUL  R31,R26
000406 2df0      	MOV  R31,R0
000407 0d61      	ADD  R22,R1
000408 1f78      	ADC  R23,R24
000409 9feb      	MUL  R30,R27
00040a 0df0      	ADD  R31,R0
00040b 1d61      	ADC  R22,R1
00040c 1f78      	ADC  R23,R24
00040d 9fea      	MUL  R30,R26
00040e 2de0      	MOV  R30,R0
00040f 0df1      	ADD  R31,R1
000410 1f68      	ADC  R22,R24
000411 1f78      	ADC  R23,R24
000412 9508      	RET
                 
                 __DIVW21U:
000413 2400      	CLR  R0
000414 2411      	CLR  R1
000415 e190      	LDI  R25,16
                 __DIVW21U1:
000416 0faa      	LSL  R26
000417 1fbb      	ROL  R27
000418 1c00      	ROL  R0
000419 1c11      	ROL  R1
00041a 1a0e      	SUB  R0,R30
00041b 0a1f      	SBC  R1,R31
00041c f418      	BRCC __DIVW21U2
00041d 0e0e      	ADD  R0,R30
00041e 1e1f      	ADC  R1,R31
00041f c001      	RJMP __DIVW21U3
                 __DIVW21U2:
000420 60a1      	SBR  R26,1
                 __DIVW21U3:
000421 959a      	DEC  R25
000422 f799      	BRNE __DIVW21U1
000423 01fd      	MOVW R30,R26
000424 01d0      	MOVW R26,R0
000425 9508      	RET
                 
                 __GETD1S0:
000426 81e8      	LD   R30,Y
000427 81f9      	LDD  R31,Y+1
000428 816a      	LDD  R22,Y+2
000429 817b      	LDD  R23,Y+3
00042a 9508      	RET
                 
                 __GETD2S0:
00042b 81a8      	LD   R26,Y
00042c 81b9      	LDD  R27,Y+1
00042d 818a      	LDD  R24,Y+2
00042e 819b      	LDD  R25,Y+3
00042f 9508      	RET
                 
                 __PUTD1S0:
000430 83e8      	ST   Y,R30
000431 83f9      	STD  Y+1,R31
000432 836a      	STD  Y+2,R22
000433 837b      	STD  Y+3,R23
000434 9508      	RET
                 
                 __PUTPARD2:
000435 939a      	ST   -Y,R25
000436 938a      	ST   -Y,R24
000437 93ba      	ST   -Y,R27
000438 93aa      	ST   -Y,R26
000439 9508      	RET
                 
                 __CPD02:
00043a 2400      	CLR  R0
00043b 160a      	CP   R0,R26
00043c 060b      	CPC  R0,R27
00043d 0608      	CPC  R0,R24
00043e 0609      	CPC  R0,R25
00043f 9508      	RET
                 
                 __SAVELOCR6:
000440 935a      	ST   -Y,R21
                 __SAVELOCR5:
000441 934a      	ST   -Y,R20
                 __SAVELOCR4:
000442 933a      	ST   -Y,R19
                 __SAVELOCR3:
000443 932a      	ST   -Y,R18
                 __SAVELOCR2:
000444 931a      	ST   -Y,R17
000445 930a      	ST   -Y,R16
000446 9508      	RET
                 
                 __LOADLOCR6:
000447 815d      	LDD  R21,Y+5
                 __LOADLOCR5:
000448 814c      	LDD  R20,Y+4
                 __LOADLOCR4:
000449 813b      	LDD  R19,Y+3
                 __LOADLOCR3:
00044a 812a      	LDD  R18,Y+2
                 __LOADLOCR2:
00044b 8119      	LDD  R17,Y+1
00044c 8108      	LD   R16,Y
00044d 9508      	RET
                 
                 ;END OF CODE MARKER
                 __END_OF_CODE:


RESOURCE USE INFORMATION
------------------------

Notice:
The register and instruction counts are symbol table hit counts,
and hence implicitly used resources are not counted, eg, the
'lpm' instruction without operands implicitly uses r0 and z,
none of which are counted.

x,y,z are separate entities in the symbol table and are
counted separately from r26..r31 here.

.dseg memory usage only counts static data declared with .byte

ATmega8A register use summary:
r0 :  26 r1 :  13 r2 :  16 r3 :   0 r4 :   4 r5 :   3 r6 :   0 r7 :   3 
r8 :   0 r9 :   0 r10:   0 r11:   0 r12:   0 r13:   0 r14:   0 r15:   2 
r16:  17 r17:  30 r18:  19 r19:   8 r20:   6 r21:   2 r22:  16 r23:  17 
r24:  23 r25:  14 r26:  99 r27:  35 r28:  14 r29:   1 r30: 372 r31:  53 
x  :  10 y  : 136 z  :   8 
Registers used: 26 out of 35 (74.3%)

ATmega8A instruction use summary:
.lds  :   0 .lds.l:   0 .sts  :   0 .sts.l:   0 adc   :  11 add   :  13 
adiw  :  10 and   :   0 andi  :  25 asr   :   0 bclr  :   0 bld   :  11 
brbc  :   0 brbs  :   0 brcc  :   1 brcs  :   0 break :   0 breq  :  20 
brge  :   5 brhc  :   0 brhs  :   0 brid  :   0 brie  :   0 brlo  :   3 
brlt  :   0 brmi  :   0 brne  :  42 brpl  :   0 brsh  :   6 brtc  :   0 
brts  :   0 brvc  :   0 brvs  :   0 bset  :   0 bst   :   0 cbi   :   0 
cbr   :   0 clc   :   0 clh   :   0 cli   :   1 cln   :   0 clr   :  15 
cls   :   0 clt   :   5 clv   :   0 clz   :   0 com   :   0 cp    :  10 
cpc   :  10 cpi   :  45 cpse  :   0 dec   :   2 des   :   0 eor   :   0 
fmul  :   0 fmuls :   0 fmulsu:   0 icall :   4 ijmp  :   0 in    :  23 
inc   :   1 ld    :  37 ldd   :  41 ldi   : 141 lds   :  35 lpm   :   9 
lsl   :   5 lsr   :   0 mov   :  18 movw  :  10 mul   :  10 muls  :   0 
mulsu :   0 neg   :   0 nop   :   0 or    :   2 ori   :  25 out   :  56 
pop   :   0 push  :   0 rcall :  76 ret   :  26 reti  :   2 rjmp  :  97 
rol   :   3 ror   :   0 sbc   :   1 sbci  :   3 sbi   :   2 sbic  :   1 
sbis  :   0 sbiw  :  20 sbr   :   1 sbrc  :   1 sbrs  :   4 sec   :   0 
seh   :   0 sei   :   2 sen   :   0 ser   :   0 ses   :   0 set   :   7 
sev   :   0 sez   :   0 sleep :   0 spm   :   0 st    :  61 std   :   7 
sts   :  24 sub   :   1 subi  :  12 swap  :   2 tst   :   3 wdr   :   0 

Instructions used: 55 out of 114 (48.2%)

ATmega8A memory use summary [bytes]:
Segment   Begin    End      Code   Data   Used    Size   Use%
---------------------------------------------------------------
[.cseg] 0x000000 0x00089c   2132     72   2204    8192  26.9%
[.dseg] 0x000060 0x00018a      0     42     42    1024   4.1%
[.eseg] 0x000000 0x000000      0      0      0     512   0.0%

Assembly complete, 0 errors, 5 warnings
